(imatplotlib.font_manager
FontManager
p1
(dp2
S'afm_lookup_cache'
p3
(dp4
sS'ttflist'
p5
(lp6
ccopy_reg
_reconstructor
p7
(cmatplotlib.font_manager
FontEntry
p8
c__builtin__
object
p9
NtRp10
(dp11
S'style'
p12
S'normal'
p13
sS'name'
p14
S'Bitstream Vera Serif'
p15
sS'weight'
p16
I400
sS'stretch'
p17
g13
sS'variant'
p18
g13
sS'fname'
p19
S'/usr/local/lib/python2.7/dist-packages/matplotlib/mpl-data/fonts/ttf/VeraSe.ttf'
p20
sS'size'
p21
S'scalable'
p22
sbag7
(g8
g9
NtRp23
(dp24
g12
S'oblique'
p25
sg14
S'Bitstream Vera Sans Mono'
p26
sg16
I700
sg17
g13
sg18
g13
sg19
S'/usr/local/lib/python2.7/dist-packages/matplotlib/mpl-data/fonts/ttf/VeraMoBI.ttf'
p27
sg21
g22
sbag7
(g8
g9
NtRp28
(dp29
g12
g13
sg14
S'STIXGeneral'
p30
sg16
I400
sg17
g13
sg18
g13
sg19
S'/usr/local/lib/python2.7/dist-packages/matplotlib/mpl-data/fonts/ttf/STIXGeneral.ttf'
p31
sg21
g22
sbag7
(g8
g9
NtRp32
(dp33
g12
g13
sg14
S'STIXSizeFourSym'
p34
sg16
I400
sg17
g13
sg18
g13
sg19
S'/usr/local/lib/python2.7/dist-packages/matplotlib/mpl-data/fonts/ttf/STIXSizFourSymReg.ttf'
p35
sg21
g22
sbag7
(g8
g9
NtRp36
(dp37
g12
g13
sg14
S'STIXGeneral'
p38
sg16
I700
sg17
g13
sg18
g13
sg19
S'/usr/local/lib/python2.7/dist-packages/matplotlib/mpl-data/fonts/ttf/STIXGeneralBol.ttf'
p39
sg21
g22
sbag7
(g8
g9
NtRp40
(dp41
g12
g13
sg14
S'cmr10'
p42
sg16
I400
sg17
g13
sg18
g13
sg19
S'/usr/local/lib/python2.7/dist-packages/matplotlib/mpl-data/fonts/ttf/cmr10.ttf'
p43
sg21
g22
sbag7
(g8
g9
NtRp44
(dp45
g12
g13
sg14
S'STIXNonUnicode'
p46
sg16
I700
sg17
g13
sg18
g13
sg19
S'/usr/local/lib/python2.7/dist-packages/matplotlib/mpl-data/fonts/ttf/STIXNonUniBol.ttf'
p47
sg21
g22
sbag7
(g8
g9
NtRp48
(dp49
g12
g13
sg14
S'STIXSizeTwoSym'
p50
sg16
I400
sg17
g13
sg18
g13
sg19
S'/usr/local/lib/python2.7/dist-packages/matplotlib/mpl-data/fonts/ttf/STIXSizTwoSymReg.ttf'
p51
sg21
g22
sbag7
(g8
g9
NtRp52
(dp53
g12
S'italic'
p54
sg14
S'STIXNonUnicode'
p55
sg16
I400
sg17
g13
sg18
g13
sg19
S'/usr/local/lib/python2.7/dist-packages/matplotlib/mpl-data/fonts/ttf/STIXNonUniIta.ttf'
p56
sg21
g22
sbag7
(g8
g9
NtRp57
(dp58
g12
g13
sg14
S'Bitstream Vera Sans'
p59
sg16
I700
sg17
g13
sg18
g13
sg19
S'/usr/local/lib/python2.7/dist-packages/matplotlib/mpl-data/fonts/ttf/VeraBd.ttf'
p60
sg21
g22
sbag7
(g8
g9
NtRp61
(dp62
g12
g13
sg14
S'STIXSizeThreeSym'
p63
sg16
I700
sg17
g13
sg18
g13
sg19
S'/usr/local/lib/python2.7/dist-packages/matplotlib/mpl-data/fonts/ttf/STIXSizThreeSymBol.ttf'
p64
sg21
g22
sbag7
(g8
g9
NtRp65
(dp66
g12
g13
sg14
S'STIXSizeOneSym'
p67
sg16
I700
sg17
g13
sg18
g13
sg19
S'/usr/local/lib/python2.7/dist-packages/matplotlib/mpl-data/fonts/ttf/STIXSizOneSymBol.ttf'
p68
sg21
g22
sbag7
(g8
g9
NtRp69
(dp70
g12
g25
sg14
S'Bitstream Vera Sans'
p71
sg16
I400
sg17
g13
sg18
g13
sg19
S'/usr/local/lib/python2.7/dist-packages/matplotlib/mpl-data/fonts/ttf/VeraIt.ttf'
p72
sg21
g22
sbag7
(g8
g9
NtRp73
(dp74
g12
g54
sg14
S'STIXGeneral'
p75
sg16
I700
sg17
g13
sg18
g13
sg19
S'/usr/local/lib/python2.7/dist-packages/matplotlib/mpl-data/fonts/ttf/STIXGeneralBolIta.ttf'
p76
sg21
g22
sbag7
(g8
g9
NtRp77
(dp78
g12
g13
sg14
S'cmsy10'
p79
sg16
I400
sg17
g13
sg18
g13
sg19
S'/usr/local/lib/python2.7/dist-packages/matplotlib/mpl-data/fonts/ttf/cmsy10.ttf'
p80
sg21
g22
sbag7
(g8
g9
NtRp81
(dp82
g12
g13
sg14
S'cmss10'
p83
sg16
I400
sg17
g13
sg18
g13
sg19
S'/usr/local/lib/python2.7/dist-packages/matplotlib/mpl-data/fonts/ttf/cmss10.ttf'
p84
sg21
g22
sbag7
(g8
g9
NtRp85
(dp86
g12
g54
sg14
S'STIXNonUnicode'
p87
sg16
I700
sg17
g13
sg18
g13
sg19
S'/usr/local/lib/python2.7/dist-packages/matplotlib/mpl-data/fonts/ttf/STIXNonUniBolIta.ttf'
p88
sg21
g22
sbag7
(g8
g9
NtRp89
(dp90
g12
g13
sg14
S'STIXSizeThreeSym'
p91
sg16
I400
sg17
g13
sg18
g13
sg19
S'/usr/local/lib/python2.7/dist-packages/matplotlib/mpl-data/fonts/ttf/STIXSizThreeSymReg.ttf'
p92
sg21
g22
sbag7
(g8
g9
NtRp93
(dp94
g12
g13
sg14
S'cmmi10'
p95
sg16
I400
sg17
g13
sg18
g13
sg19
S'/usr/local/lib/python2.7/dist-packages/matplotlib/mpl-data/fonts/ttf/cmmi10.ttf'
p96
sg21
g22
sbag7
(g8
g9
NtRp97
(dp98
g12
g13
sg14
S'cmb10'
p99
sg16
I400
sg17
g13
sg18
g13
sg19
S'/usr/local/lib/python2.7/dist-packages/matplotlib/mpl-data/fonts/ttf/cmb10.ttf'
p100
sg21
g22
sbag7
(g8
g9
NtRp101
(dp102
g12
g13
sg14
S'STIXSizeFiveSym'
p103
sg16
I400
sg17
g13
sg18
g13
sg19
S'/usr/local/lib/python2.7/dist-packages/matplotlib/mpl-data/fonts/ttf/STIXSizFiveSymReg.ttf'
p104
sg21
g22
sbag7
(g8
g9
NtRp105
(dp106
g12
g13
sg14
S'STIXSizeTwoSym'
p107
sg16
I700
sg17
g13
sg18
g13
sg19
S'/usr/local/lib/python2.7/dist-packages/matplotlib/mpl-data/fonts/ttf/STIXSizTwoSymBol.ttf'
p108
sg21
g22
sbag7
(g8
g9
NtRp109
(dp110
g12
g13
sg14
S'STIXSizeFourSym'
p111
sg16
I700
sg17
g13
sg18
g13
sg19
S'/usr/local/lib/python2.7/dist-packages/matplotlib/mpl-data/fonts/ttf/STIXSizFourSymBol.ttf'
p112
sg21
g22
sbag7
(g8
g9
NtRp113
(dp114
g12
g13
sg14
S'Bitstream Vera Sans Mono'
p115
sg16
I700
sg17
g13
sg18
g13
sg19
S'/usr/local/lib/python2.7/dist-packages/matplotlib/mpl-data/fonts/ttf/VeraMoBd.ttf'
p116
sg21
g22
sbag7
(g8
g9
NtRp117
(dp118
g12
g13
sg14
S'Bitstream Vera Sans Mono'
p119
sg16
I400
sg17
g13
sg18
g13
sg19
S'/usr/local/lib/python2.7/dist-packages/matplotlib/mpl-data/fonts/ttf/VeraMono.ttf'
p120
sg21
g22
sbag7
(g8
g9
NtRp121
(dp122
g12
g25
sg14
S'Bitstream Vera Sans'
p123
sg16
I700
sg17
g13
sg18
g13
sg19
S'/usr/local/lib/python2.7/dist-packages/matplotlib/mpl-data/fonts/ttf/VeraBI.ttf'
p124
sg21
g22
sbag7
(g8
g9
NtRp125
(dp126
g12
g13
sg14
S'Bitstream Vera Serif'
p127
sg16
I700
sg17
g13
sg18
g13
sg19
S'/usr/local/lib/python2.7/dist-packages/matplotlib/mpl-data/fonts/ttf/VeraSeBd.ttf'
p128
sg21
g22
sbag7
(g8
g9
NtRp129
(dp130
g12
g13
sg14
S'STIXNonUnicode'
p131
sg16
I400
sg17
g13
sg18
g13
sg19
S'/usr/local/lib/python2.7/dist-packages/matplotlib/mpl-data/fonts/ttf/STIXNonUni.ttf'
p132
sg21
g22
sbag7
(g8
g9
NtRp133
(dp134
g12
g13
sg14
S'Bitstream Vera Sans'
p135
sg16
I400
sg17
g13
sg18
g13
sg19
S'/usr/local/lib/python2.7/dist-packages/matplotlib/mpl-data/fonts/ttf/Vera.ttf'
p136
sg21
g22
sbag7
(g8
g9
NtRp137
(dp138
g12
g13
sg14
S'cmex10'
p139
sg16
I400
sg17
g13
sg18
g13
sg19
S'/usr/local/lib/python2.7/dist-packages/matplotlib/mpl-data/fonts/ttf/cmex10.ttf'
p140
sg21
g22
sbag7
(g8
g9
NtRp141
(dp142
g12
g25
sg14
S'Bitstream Vera Sans Mono'
p143
sg16
I400
sg17
g13
sg18
g13
sg19
S'/usr/local/lib/python2.7/dist-packages/matplotlib/mpl-data/fonts/ttf/VeraMoIt.ttf'
p144
sg21
g22
sbag7
(g8
g9
NtRp145
(dp146
g12
g13
sg14
S'STIXSizeOneSym'
p147
sg16
I400
sg17
g13
sg18
g13
sg19
S'/usr/local/lib/python2.7/dist-packages/matplotlib/mpl-data/fonts/ttf/STIXSizOneSymReg.ttf'
p148
sg21
g22
sbag7
(g8
g9
NtRp149
(dp150
g12
g13
sg14
S'cmtt10'
p151
sg16
I400
sg17
g13
sg18
g13
sg19
S'/usr/local/lib/python2.7/dist-packages/matplotlib/mpl-data/fonts/ttf/cmtt10.ttf'
p152
sg21
g22
sbag7
(g8
g9
NtRp153
(dp154
g12
g54
sg14
S'STIXGeneral'
p155
sg16
I400
sg17
g13
sg18
g13
sg19
S'/usr/local/lib/python2.7/dist-packages/matplotlib/mpl-data/fonts/ttf/STIXGeneralItalic.ttf'
p156
sg21
g22
sbag7
(g8
g9
NtRp157
(dp158
g12
g13
sg14
S'KacstTitle'
p159
sg16
I400
sg17
g13
sg18
g13
sg19
S'/usr/share/fonts/truetype/kacst/KacstTitle.ttf'
p160
sg21
g22
sbag7
(g8
g9
NtRp161
(dp162
g12
g54
sg14
S'Latin Modern Roman'
p163
sg16
I500
sg17
g13
sg18
g13
sg19
S'/usr/share/texmf/fonts/opentype/public/lm/lmroman8-italic.otf'
p164
sg21
g22
sbag7
(g8
g9
NtRp165
(dp166
g12
g13
sg14
S'Mallige'
p167
sg16
I700
sg17
g13
sg18
g13
sg19
S'/usr/share/fonts/truetype/ttf-indic-fonts-core/Malige-b.ttf'
p168
sg21
g22
sbag7
(g8
g9
NtRp169
(dp170
g12
g13
sg14
S'Ubuntu'
p171
sg16
I500
sg17
g13
sg18
g13
sg19
S'/usr/share/fonts/truetype/ubuntu-font-family/Ubuntu-M.ttf'
p172
sg21
g22
sbag7
(g8
g9
NtRp173
(dp174
g12
g13
sg14
S'Latin Modern Roman'
p175
sg16
I400
sg17
g13
sg18
g13
sg19
S'/usr/share/texmf/fonts/opentype/public/lm/lmroman7-regular.otf'
p176
sg21
g22
sbag7
(g8
g9
NtRp177
(dp178
g12
g13
sg14
S'Umpush'
p179
sg16
I400
sg17
g13
sg18
g13
sg19
S'/usr/share/fonts/truetype/tlwg/Umpush.ttf'
p180
sg21
g22
sbag7
(g8
g9
NtRp181
(dp182
g12
g13
sg14
S'Latin Modern Roman'
p183
sg16
I400
sg17
g13
sg18
g13
sg19
S'/usr/share/texmf/fonts/opentype/public/lm/lmroman6-regular.otf'
p184
sg21
g22
sbag7
(g8
g9
NtRp185
(dp186
g12
g13
sg14
S'Garuda'
p187
sg16
I700
sg17
g13
sg18
g13
sg19
S'/usr/share/fonts/truetype/tlwg/Garuda-Bold.ttf'
p188
sg21
g22
sbag7
(g8
g9
NtRp189
(dp190
g12
g54
sg14
S'DejaVu Serif'
p191
sg16
I700
sg17
S'condensed'
p192
sg18
g13
sg19
S'/usr/share/fonts/truetype/dejavu/DejaVuSerifCondensed-BoldItalic.ttf'
p193
sg21
g22
sbag7
(g8
g9
NtRp194
(dp195
g12
g25
sg14
S'Tlwg Typist'
p196
sg16
I700
sg17
g13
sg18
g13
sg19
S'/usr/share/fonts/truetype/tlwg/TlwgTypist-BoldOblique.ttf'
p197
sg21
g22
sbag7
(g8
g9
NtRp198
(dp199
g12
g13
sg14
S'FreeSerif'
p200
sg16
I400
sg17
g13
sg18
g13
sg19
S'/usr/share/fonts/truetype/freefont/FreeSerif.ttf'
p201
sg21
g22
sbag7
(g8
g9
NtRp202
(dp203
g12
g13
sg14
S'KacstScreen'
p204
sg16
I400
sg17
g13
sg18
g13
sg19
S'/usr/share/fonts/truetype/kacst/KacstScreen.ttf'
p205
sg21
g22
sbag7
(g8
g9
NtRp206
(dp207
g12
g13
sg14
S'Latin Modern Roman'
p208
sg16
I400
sg17
g13
sg18
g13
sg19
S'/usr/share/texmf/fonts/opentype/public/lm/lmroman10-regular.otf'
p209
sg21
g22
sbag7
(g8
g9
NtRp210
(dp211
g12
g13
sg14
S'DejaVu Sans'
p212
sg16
I400
sg17
g192
sg18
g13
sg19
S'/usr/share/fonts/truetype/ttf-dejavu/DejaVuSansCondensed.ttf'
p213
sg21
g22
sbag7
(g8
g9
NtRp214
(dp215
g12
g25
sg14
S'Loma'
p216
sg16
I400
sg17
g13
sg18
g13
sg19
S'/usr/share/fonts/truetype/tlwg/Loma-Oblique.ttf'
p217
sg21
g22
sbag7
(g8
g9
NtRp218
(dp219
g12
g25
sg14
S'Norasi'
p220
sg16
I400
sg17
g13
sg18
g13
sg19
S'/usr/share/fonts/truetype/tlwg/Norasi-Oblique.ttf'
p221
sg21
g22
sbag7
(g8
g9
NtRp222
(dp223
g12
g13
sg14
S'Liberation Sans Narrow'
p224
sg16
I400
sg17
g192
sg18
g13
sg19
S'/usr/share/fonts/truetype/liberation/LiberationSansNarrow-Regular.ttf'
p225
sg21
g22
sbag7
(g8
g9
NtRp226
(dp227
g12
g13
sg14
S'Latin Modern Sans'
p228
sg16
I700
sg17
g13
sg18
g13
sg19
S'/usr/share/texmf/fonts/opentype/public/lm/lmsans10-bold.otf'
p229
sg21
g22
sbag7
(g8
g9
NtRp230
(dp231
g12
g25
sg14
S'Latin Modern Mono Light'
p232
sg16
I200
sg17
g13
sg18
g13
sg19
S'/usr/share/texmf/fonts/opentype/public/lm/lmmonolt10-oblique.otf'
p233
sg21
g22
sbag7
(g8
g9
NtRp234
(dp235
g12
g54
sg14
S'Latin Modern Roman'
p236
sg16
I500
sg17
g13
sg18
g13
sg19
S'/usr/share/texmf/fonts/opentype/public/lm/lmroman10-italic.otf'
p237
sg21
g22
sbag7
(g8
g9
NtRp238
(dp239
g12
g13
sg14
S'DejaVu Sans Mono'
p240
sg16
I400
sg17
g13
sg18
g13
sg19
S'/usr/share/fonts/truetype/ttf-dejavu/DejaVuSansMono.ttf'
p241
sg21
g22
sbag7
(g8
g9
NtRp242
(dp243
g12
g13
sg14
S'Lohit Punjabi'
p244
sg16
I400
sg17
g13
sg18
g13
sg19
S'/usr/share/fonts/truetype/ttf-punjabi-fonts/lohit_pa.ttf'
p245
sg21
g22
sbag7
(g8
g9
NtRp246
(dp247
g12
g13
sg14
S'Meera'
p248
sg16
I400
sg17
g13
sg18
g13
sg19
S'/usr/share/fonts/truetype/ttf-indic-fonts-core/Meera_04.ttf'
p249
sg21
g22
sbag7
(g8
g9
NtRp250
(dp251
g12
g13
sg14
S'TakaoPGothic'
p252
sg16
I400
sg17
g13
sg18
g13
sg19
S'/usr/share/fonts/truetype/fonts-japanese-gothic.ttf'
p253
sg21
g22
sbag7
(g8
g9
NtRp254
(dp255
g12
g13
sg14
S'Liberation Mono'
p256
sg16
I700
sg17
g13
sg18
g13
sg19
S'/usr/share/fonts/truetype/liberation/LiberationMono-Bold.ttf'
p257
sg21
g22
sbag7
(g8
g9
NtRp258
(dp259
g12
g13
sg14
S'DejaVu Serif'
p260
sg16
I400
sg17
g13
sg18
g13
sg19
S'/usr/share/fonts/truetype/dejavu/DejaVuSerif.ttf'
p261
sg21
g22
sbag7
(g8
g9
NtRp262
(dp263
g12
g25
sg14
S'Umpush'
p264
sg16
I200
sg17
g13
sg18
g13
sg19
S'/usr/share/fonts/truetype/tlwg/Umpush-LightOblique.ttf'
p265
sg21
g22
sbag7
(g8
g9
NtRp266
(dp267
g12
g13
sg14
S'DejaVu Sans'
p268
sg16
I700
sg17
g13
sg18
g13
sg19
S'/usr/share/fonts/truetype/dejavu/DejaVuSans-Bold.ttf'
p269
sg21
g22
sbag7
(g8
g9
NtRp270
(dp271
g12
g25
sg14
S'FreeMono'
p272
sg16
I700
sg17
g13
sg18
g13
sg19
S'/usr/share/fonts/truetype/freefont/FreeMonoBoldOblique.ttf'
p273
sg21
g22
sbag7
(g8
g9
NtRp274
(dp275
g12
g13
sg14
S'Tlwg Typo'
p276
sg16
I400
sg17
g13
sg18
g13
sg19
S'/usr/share/fonts/truetype/tlwg/TlwgTypo.ttf'
p277
sg21
g22
sbag7
(g8
g9
NtRp278
(dp279
g12
g54
sg14
S'DejaVu Serif'
p280
sg16
I700
sg17
g13
sg18
g13
sg19
S'/usr/share/fonts/truetype/dejavu/DejaVuSerif-BoldItalic.ttf'
p281
sg21
g22
sbag7
(g8
g9
NtRp282
(dp283
g12
g13
sg14
S'Padauk Book'
p284
sg16
I700
sg17
g13
sg18
g13
sg19
S'/usr/share/fonts/truetype/padauk/Padauk-bookbold.ttf'
p285
sg21
g22
sbag7
(g8
g9
NtRp286
(dp287
g12
g13
sg14
S'LKLUG'
p288
sg16
I400
sg17
g13
sg18
g13
sg19
S'/usr/share/fonts/truetype/sinhala/lklug.ttf'
p289
sg21
g22
sbag7
(g8
g9
NtRp290
(dp291
g12
g13
sg14
S'Rachana'
p292
sg16
I400
sg17
g13
sg18
g13
sg19
S'/usr/share/fonts/truetype/ttf-indic-fonts-core/Rachana_04.ttf'
p293
sg21
g22
sbag7
(g8
g9
NtRp294
(dp295
g12
g13
sg14
S'Latin Modern Mono'
p296
sg16
I400
sg17
g13
sg18
g13
sg19
S'/usr/share/texmf/fonts/opentype/public/lm/lmmono10-regular.otf'
p297
sg21
g22
sbag7
(g8
g9
NtRp298
(dp299
g12
g13
sg14
S'Liberation Sans Narrow'
p300
sg16
I700
sg17
g192
sg18
g13
sg19
S'/usr/share/fonts/truetype/liberation/LiberationSansNarrow-Bold.ttf'
p301
sg21
g22
sbag7
(g8
g9
NtRp302
(dp303
g12
g25
sg14
S'FreeSans'
p304
sg16
I400
sg17
g13
sg18
g13
sg19
S'/usr/share/fonts/truetype/freefont/FreeSansOblique.ttf'
p305
sg21
g22
sbag7
(g8
g9
NtRp306
(dp307
g12
g13
sg14
S'Liberation Serif'
p308
sg16
I400
sg17
g13
sg18
g13
sg19
S'/usr/share/fonts/truetype/liberation/LiberationSerif-Regular.ttf'
p309
sg21
g22
sbag7
(g8
g9
NtRp310
(dp311
g12
g25
sg14
S'Latin Modern Roman Dunhill'
p312
sg16
I500
sg17
g13
sg18
g13
sg19
S'/usr/share/texmf/fonts/opentype/public/lm/lmromandunh10-oblique.otf'
p313
sg21
g22
sbag7
(g8
g9
NtRp314
(dp315
g12
g13
sg14
S'Liberation Mono'
p316
sg16
I400
sg17
g13
sg18
g13
sg19
S'/usr/share/fonts/truetype/liberation/LiberationMono-Regular.ttf'
p317
sg21
g22
sbag7
(g8
g9
NtRp318
(dp319
g12
g13
sg14
S'Ubuntu'
p320
sg16
I400
sg17
g13
sg18
g13
sg19
S'/usr/share/fonts/truetype/ubuntu-font-family/Ubuntu-R.ttf'
p321
sg21
g22
sbag7
(g8
g9
NtRp322
(dp323
g12
g13
sg14
S'Liberation Sans'
p324
sg16
I700
sg17
g13
sg18
g13
sg19
S'/usr/share/fonts/truetype/liberation/LiberationSans-Bold.ttf'
p325
sg21
g22
sbag7
(g8
g9
NtRp326
(dp327
g12
g13
sg14
S'Lohit Hindi'
p328
sg16
I400
sg17
g13
sg18
g13
sg19
S'/usr/share/fonts/truetype/ttf-indic-fonts-core/lohit_hi.ttf'
p329
sg21
g22
sbag7
(g8
g9
NtRp330
(dp331
g12
g13
sg14
S'DejaVu Serif'
p332
sg16
I700
sg17
g192
sg18
g13
sg19
S'/usr/share/fonts/truetype/dejavu/DejaVuSerifCondensed-Bold.ttf'
p333
sg21
g22
sbag7
(g8
g9
NtRp334
(dp335
g12
g25
sg14
S'DejaVu Sans'
p336
sg16
I400
sg17
g13
sg18
g13
sg19
S'/usr/share/fonts/truetype/ttf-dejavu/DejaVuSans-Oblique.ttf'
p337
sg21
g22
sbag7
(g8
g9
NtRp338
(dp339
g12
g13
sg14
S'Latin Modern Mono Light'
p340
sg16
I400
sg17
g13
sg18
g13
sg19
S'/usr/share/texmf/fonts/opentype/public/lm/lmmonolt10-regular.otf'
p341
sg21
g22
sbag7
(g8
g9
NtRp342
(dp343
g12
g13
sg14
S'Latin Modern Sans'
p344
sg16
I400
sg17
g13
sg18
g13
sg19
S'/usr/share/texmf/fonts/opentype/public/lm/lmsans10-regular.otf'
p345
sg21
g22
sbag7
(g8
g9
NtRp346
(dp347
g12
g13
sg14
S'Latin Modern Mono Caps'
p348
sg16
I400
sg17
g13
sg18
g13
sg19
S'/usr/share/texmf/fonts/opentype/public/lm/lmmonocaps10-regular.otf'
p349
sg21
g22
sbag7
(g8
g9
NtRp350
(dp351
g12
g25
sg14
S'DejaVu Sans'
p352
sg16
I700
sg17
g13
sg18
g13
sg19
S'/usr/share/fonts/truetype/dejavu/DejaVuSans-BoldOblique.ttf'
p353
sg21
g22
sbag7
(g8
g9
NtRp354
(dp355
g12
g13
sg14
S'Latin Modern Roman'
p356
sg16
I400
sg17
g13
sg18
g13
sg19
S'/usr/share/texmf/fonts/opentype/public/lm/lmroman12-regular.otf'
p357
sg21
g22
sbag7
(g8
g9
NtRp358
(dp359
g12
g13
sg14
S'Tlwg Typist'
p360
sg16
I400
sg17
g13
sg18
g13
sg19
S'/usr/share/fonts/truetype/tlwg/TlwgTypist.ttf'
p361
sg21
g22
sbag7
(g8
g9
NtRp362
(dp363
g12
g13
sg14
S'NanumGothic'
p364
sg16
I400
sg17
g13
sg18
g13
sg19
S'/usr/share/fonts/truetype/nanum/NanumGothic.ttf'
p365
sg21
g22
sbag7
(g8
g9
NtRp366
(dp367
g12
g13
sg14
S'Garuda'
p368
sg16
I400
sg17
g13
sg18
g13
sg19
S'/usr/share/fonts/truetype/tlwg/Garuda.ttf'
p369
sg21
g22
sbag7
(g8
g9
NtRp370
(dp371
g12
g25
sg14
S'DejaVu Sans'
p372
sg16
I700
sg17
g192
sg18
g13
sg19
S'/usr/share/fonts/truetype/ttf-dejavu/DejaVuSansCondensed-BoldOblique.ttf'
p373
sg21
g22
sbag7
(g8
g9
NtRp374
(dp375
g12
g25
sg14
S'TlwgMono'
p376
sg16
I400
sg17
g13
sg18
g13
sg19
S'/usr/share/fonts/truetype/tlwg/TlwgMono-Oblique.ttf'
p377
sg21
g22
sbag7
(g8
g9
NtRp378
(dp379
g12
g25
sg14
S'Latin Modern Sans'
p380
sg16
I400
sg17
g13
sg18
g13
sg19
S'/usr/share/texmf/fonts/opentype/public/lm/lmsans10-oblique.otf'
p381
sg21
g22
sbag7
(g8
g9
NtRp382
(dp383
g12
g13
sg14
S'TlwgMono'
p384
sg16
I700
sg17
g13
sg18
g13
sg19
S'/usr/share/fonts/truetype/tlwg/TlwgMono-Bold.ttf'
p385
sg21
g22
sbag7
(g8
g9
NtRp386
(dp387
g12
g54
sg14
S'Liberation Mono'
p388
sg16
I400
sg17
g13
sg18
g13
sg19
S'/usr/share/fonts/truetype/liberation/LiberationMono-Italic.ttf'
p389
sg21
g22
sbag7
(g8
g9
NtRp390
(dp391
g12
g13
sg14
S'Tibetan Machine Uni'
p392
sg16
I400
sg17
g13
sg18
g13
sg19
S'/usr/share/fonts/truetype/tibetan-machine/TibetanMachineUni.ttf'
p393
sg21
g22
sbag7
(g8
g9
NtRp394
(dp395
g12
g54
sg14
S'Liberation Serif'
p396
sg16
I700
sg17
g13
sg18
g13
sg19
S'/usr/share/fonts/truetype/liberation/LiberationSerif-BoldItalic.ttf'
p397
sg21
g22
sbag7
(g8
g9
NtRp398
(dp399
g12
g54
sg14
S'Latin Modern Roman'
p400
sg16
I500
sg17
g13
sg18
g13
sg19
S'/usr/share/texmf/fonts/opentype/public/lm/lmroman7-italic.otf'
p401
sg21
g22
sbag7
(g8
g9
NtRp402
(dp403
g12
g54
sg14
S'DejaVu Serif'
p404
sg16
I400
sg17
g13
sg18
g13
sg19
S'/usr/share/fonts/truetype/dejavu/DejaVuSerif-Italic.ttf'
p405
sg21
g22
sbag7
(g8
g9
NtRp406
(dp407
g12
g13
sg14
S'Latin Modern Sans Quotation'
p408
sg16
I400
sg17
g13
sg18
g13
sg19
S'/usr/share/texmf/fonts/opentype/public/lm/lmsansquot8-regular.otf'
p409
sg21
g22
sbag7
(g8
g9
NtRp410
(dp411
g12
g13
sg14
S'Latin Modern Roman Slanted'
p412
sg16
I400
sg17
g13
sg18
g13
sg19
S'/usr/share/texmf/fonts/opentype/public/lm/lmromanslant8-regular.otf'
p413
sg21
g22
sbag7
(g8
g9
NtRp414
(dp415
g12
g13
sg14
S'Liberation Serif'
p416
sg16
I700
sg17
g13
sg18
g13
sg19
S'/usr/share/fonts/truetype/liberation/LiberationSerif-Bold.ttf'
p417
sg21
g22
sbag7
(g8
g9
NtRp418
(dp419
g12
g13
sg14
S'KacstOne'
p420
sg16
I700
sg17
g13
sg18
g13
sg19
S'/usr/share/fonts/truetype/kacst-one/KacstOne-Bold.ttf'
p421
sg21
g22
sbag7
(g8
g9
NtRp422
(dp423
g12
g25
sg14
S'DejaVu Sans Mono'
p424
sg16
I400
sg17
g13
sg18
g13
sg19
S'/usr/share/fonts/truetype/dejavu/DejaVuSansMono-Oblique.ttf'
p425
sg21
g22
sbag7
(g8
g9
NtRp426
(dp427
g12
g13
sg14
S'Latin Modern Math'
p428
sg16
I400
sg17
g13
sg18
g13
sg19
S'/usr/share/texmf/fonts/opentype/public/lm-math/latinmodernmath-regular.otf'
p429
sg21
g22
sbag7
(g8
g9
NtRp430
(dp431
g12
g13
sg14
S'NanumMyeongjo'
p432
sg16
I700
sg17
g13
sg18
g13
sg19
S'/usr/share/fonts/truetype/nanum/NanumMyeongjoBold.ttf'
p433
sg21
g22
sbag7
(g8
g9
NtRp434
(dp435
g12
g13
sg14
S'DejaVu Sans Mono'
p436
sg16
I700
sg17
g13
sg18
g13
sg19
S'/usr/share/fonts/truetype/ttf-dejavu/DejaVuSansMono-Bold.ttf'
p437
sg21
g22
sbag7
(g8
g9
NtRp438
(dp439
g12
g25
sg14
S'Latin Modern Mono Caps'
p440
sg16
I400
sg17
g13
sg18
g13
sg19
S'/usr/share/texmf/fonts/opentype/public/lm/lmmonocaps10-oblique.otf'
p441
sg21
g22
sbag7
(g8
g9
NtRp442
(dp443
g12
g13
sg14
S'Latin Modern Roman'
p444
sg16
I700
sg17
g13
sg18
g13
sg19
S'/usr/share/texmf/fonts/opentype/public/lm/lmroman12-bold.otf'
p445
sg21
g22
sbag7
(g8
g9
NtRp446
(dp447
g12
g13
sg14
S'Phetsarath OT'
p448
sg16
I400
sg17
g13
sg18
g13
sg19
S'/usr/share/fonts/truetype/lao/Phetsarath_OT.ttf'
p449
sg21
g22
sbag7
(g8
g9
NtRp450
(dp451
g12
g13
sg14
S'DejaVu Serif'
p452
sg16
I400
sg17
g192
sg18
g13
sg19
S'/usr/share/fonts/truetype/dejavu/DejaVuSerifCondensed.ttf'
p453
sg21
g22
sbag7
(g8
g9
NtRp454
(dp455
g12
g25
sg14
S'Umpush'
p456
sg16
I400
sg17
g13
sg18
g13
sg19
S'/usr/share/fonts/truetype/tlwg/Umpush-Oblique.ttf'
p457
sg21
g22
sbag7
(g8
g9
NtRp458
(dp459
g12
g13
sg14
S'ori1Uni'
p460
sg16
I500
sg17
g13
sg18
g13
sg19
S'/usr/share/fonts/truetype/ttf-indic-fonts-core/utkal.ttf'
p461
sg21
g22
sbag7
(g8
g9
NtRp462
(dp463
g12
g13
sg14
S'KacstQurn'
p464
sg16
I400
sg17
g13
sg18
g13
sg19
S'/usr/share/fonts/truetype/kacst/KacstQurn.ttf'
p465
sg21
g22
sbag7
(g8
g9
NtRp466
(dp467
g12
g13
sg14
S'Mukti Narrow'
p468
sg16
I400
sg17
g13
sg18
g13
sg19
S'/usr/share/fonts/truetype/ttf-indic-fonts-core/MuktiNarrow.ttf'
p469
sg21
g22
sbag7
(g8
g9
NtRp470
(dp471
g12
g13
sg14
S'Latin Modern Roman'
p472
sg16
I700
sg17
g13
sg18
g13
sg19
S'/usr/share/texmf/fonts/opentype/public/lm/lmroman6-bold.otf'
p473
sg21
g22
sbag7
(g8
g9
NtRp474
(dp475
g12
g13
sg14
S'TakaoPGothic'
p476
sg16
I400
sg17
g13
sg18
g13
sg19
S'/usr/share/fonts/truetype/takao-gothic/TakaoPGothic.ttf'
p477
sg21
g22
sbag7
(g8
g9
NtRp478
(dp479
g12
g13
sg14
S'Latin Modern Roman'
p480
sg16
I400
sg17
g13
sg18
g13
sg19
S'/usr/share/texmf/fonts/opentype/public/lm/lmroman17-regular.otf'
p481
sg21
g22
sbag7
(g8
g9
NtRp482
(dp483
g12
g13
sg14
S'mry_KacstQurn'
p484
sg16
I400
sg17
g13
sg18
g13
sg19
S'/usr/share/fonts/truetype/kacst/mry_KacstQurn.ttf'
p485
sg21
g22
sbag7
(g8
g9
NtRp486
(dp487
g12
g13
sg14
S'Kedage'
p488
sg16
I700
sg17
g13
sg18
g13
sg19
S'/usr/share/fonts/truetype/ttf-indic-fonts-core/Kedage-b.ttf'
p489
sg21
g22
sbag7
(g8
g9
NtRp490
(dp491
g12
g13
sg14
S'DejaVu Serif'
p492
sg16
I700
sg17
g13
sg18
g13
sg19
S'/usr/share/fonts/truetype/ttf-dejavu/DejaVuSerif-Bold.ttf'
p493
sg21
g22
sbag7
(g8
g9
NtRp494
(dp495
g12
g13
sg14
S'Ubuntu Mono'
p496
sg16
I400
sg17
g13
sg18
g13
sg19
S'/usr/share/fonts/truetype/ubuntu-font-family/UbuntuMono-R.ttf'
p497
sg21
g22
sbag7
(g8
g9
NtRp498
(dp499
g12
g25
sg14
S'Purisa'
p500
sg16
I700
sg17
g13
sg18
g13
sg19
S'/usr/share/fonts/truetype/tlwg/Purisa-BoldOblique.ttf'
p501
sg21
g22
sbag7
(g8
g9
NtRp502
(dp503
g12
g13
sg14
S'Latin Modern Mono Prop'
p504
sg16
I400
sg17
g13
sg18
g13
sg19
S'/usr/share/texmf/fonts/opentype/public/lm/lmmonoprop10-regular.otf'
p505
sg21
g22
sbag7
(g8
g9
NtRp506
(dp507
g12
g13
sg14
S'Latin Modern Mono'
p508
sg16
I400
sg17
g13
sg18
g13
sg19
S'/usr/share/texmf/fonts/opentype/public/lm/lmmono12-regular.otf'
p509
sg21
g22
sbag7
(g8
g9
NtRp510
(dp511
g12
g13
sg14
S'Norasi'
p512
sg16
I700
sg17
g13
sg18
g13
sg19
S'/usr/share/fonts/truetype/tlwg/Norasi-Bold.ttf'
p513
sg21
g22
sbag7
(g8
g9
NtRp514
(dp515
g12
g54
sg14
S'Norasi'
p516
sg16
I700
sg17
g13
sg18
g13
sg19
S'/usr/share/fonts/truetype/tlwg/Norasi-BoldItalic.ttf'
p517
sg21
g22
sbag7
(g8
g9
NtRp518
(dp519
g12
g13
sg14
S'Latin Modern Roman'
p520
sg16
I400
sg17
g13
sg18
g13
sg19
S'/usr/share/texmf/fonts/opentype/public/lm/lmroman5-regular.otf'
p521
sg21
g22
sbag7
(g8
g9
NtRp522
(dp523
g12
g13
sg14
S'Latin Modern Roman Slanted'
p524
sg16
I400
sg17
g13
sg18
g13
sg19
S'/usr/share/texmf/fonts/opentype/public/lm/lmromanslant12-regular.otf'
p525
sg21
g22
sbag7
(g8
g9
NtRp526
(dp527
g12
g13
sg14
S'Umpush'
p528
sg16
I700
sg17
g13
sg18
g13
sg19
S'/usr/share/fonts/truetype/tlwg/Umpush-Bold.ttf'
p529
sg21
g22
sbag7
(g8
g9
NtRp530
(dp531
g12
g54
sg14
S'Liberation Sans'
p532
sg16
I700
sg17
g13
sg18
g13
sg19
S'/usr/share/fonts/truetype/liberation/LiberationSans-BoldItalic.ttf'
p533
sg21
g22
sbag7
(g8
g9
NtRp534
(dp535
g12
g13
sg14
S'DejaVu Sans'
p536
sg16
I700
sg17
g192
sg18
g13
sg19
S'/usr/share/fonts/truetype/ttf-dejavu/DejaVuSansCondensed-Bold.ttf'
p537
sg21
g22
sbag7
(g8
g9
NtRp538
(dp539
g12
g25
sg14
S'Kinnari'
p540
sg16
I700
sg17
g13
sg18
g13
sg19
S'/usr/share/fonts/truetype/tlwg/Kinnari-BoldOblique.ttf'
p541
sg21
g22
sbag7
(g8
g9
NtRp542
(dp543
g12
g25
sg14
S'Latin Modern Roman Demi'
p544
sg16
I600
sg17
g13
sg18
g13
sg19
S'/usr/share/texmf/fonts/opentype/public/lm/lmromandemi10-oblique.otf'
p545
sg21
g22
sbag7
(g8
g9
NtRp546
(dp547
g12
g13
sg14
S'FreeMono'
p548
sg16
I400
sg17
g13
sg18
g13
sg19
S'/usr/share/fonts/truetype/freefont/FreeMono.ttf'
p549
sg21
g22
sbag7
(g8
g9
NtRp550
(dp551
g12
g13
sg14
S'Mallige'
p552
sg16
I400
sg17
g13
sg18
g13
sg19
S'/usr/share/fonts/truetype/ttf-indic-fonts-core/Malige-n.ttf'
p553
sg21
g22
sbag7
(g8
g9
NtRp554
(dp555
g12
g13
sg14
S'KacstNaskh'
p556
sg16
I400
sg17
g13
sg18
g13
sg19
S'/usr/share/fonts/truetype/kacst/KacstNaskh.ttf'
p557
sg21
g22
sbag7
(g8
g9
NtRp558
(dp559
g12
g13
sg14
S'Rekha'
p560
sg16
I400
sg17
g13
sg18
g13
sg19
S'/usr/share/fonts/truetype/ttf-indic-fonts-core/Rekha.ttf'
p561
sg21
g22
sbag7
(g8
g9
NtRp562
(dp563
g12
g54
sg14
S'Liberation Sans Narrow'
p564
sg16
I700
sg17
g192
sg18
g13
sg19
S'/usr/share/fonts/truetype/liberation/LiberationSansNarrow-BoldItalic.ttf'
p565
sg21
g22
sbag7
(g8
g9
NtRp566
(dp567
g12
g25
sg14
S'Norasi'
p568
sg16
I700
sg17
g13
sg18
g13
sg19
S'/usr/share/fonts/truetype/tlwg/Norasi-BoldOblique.ttf'
p569
sg21
g22
sbag7
(g8
g9
NtRp570
(dp571
g12
g54
sg14
S'Latin Modern Mono'
p572
sg16
I400
sg17
g13
sg18
g13
sg19
S'/usr/share/texmf/fonts/opentype/public/lm/lmmono10-italic.otf'
p573
sg21
g22
sbag7
(g8
g9
NtRp574
(dp575
g12
g13
sg14
S'Sawasdee'
p576
sg16
I400
sg17
g13
sg18
g13
sg19
S'/usr/share/fonts/truetype/tlwg/Sawasdee.ttf'
p577
sg21
g22
sbag7
(g8
g9
NtRp578
(dp579
g12
g13
sg14
S'KacstOne'
p580
sg16
I400
sg17
g13
sg18
g13
sg19
S'/usr/share/fonts/truetype/kacst-one/KacstOne.ttf'
p581
sg21
g22
sbag7
(g8
g9
NtRp582
(dp583
g12
g25
sg14
S'DejaVu Sans Mono'
p584
sg16
I700
sg17
g13
sg18
g13
sg19
S'/usr/share/fonts/truetype/dejavu/DejaVuSansMono-BoldOblique.ttf'
p585
sg21
g22
sbag7
(g8
g9
NtRp586
(dp587
g12
g13
sg14
S'FreeSans'
p588
sg16
I700
sg17
g13
sg18
g13
sg19
S'/usr/share/fonts/truetype/freefont/FreeSansBold.ttf'
p589
sg21
g22
sbag7
(g8
g9
NtRp590
(dp591
g12
g13
sg14
S'Latin Modern Mono Light Cond'
p592
sg16
I400
sg17
g192
sg18
g13
sg19
S'/usr/share/texmf/fonts/opentype/public/lm/lmmonoltcond10-regular.otf'
p593
sg21
g22
sbag7
(g8
g9
NtRp594
(dp595
g12
g13
sg14
S'Latin Modern Roman Demi'
p596
sg16
I600
sg17
g13
sg18
g13
sg19
S'/usr/share/texmf/fonts/opentype/public/lm/lmromandemi10-regular.otf'
p597
sg21
g22
sbag7
(g8
g9
NtRp598
(dp599
g12
g13
sg14
S'Latin Modern Sans Quotation'
p600
sg16
I700
sg17
g13
sg18
g13
sg19
S'/usr/share/texmf/fonts/opentype/public/lm/lmsansquot8-bold.otf'
p601
sg21
g22
sbag7
(g8
g9
NtRp602
(dp603
g12
g13
sg14
S'Lohit Bengali'
p604
sg16
I400
sg17
g13
sg18
g13
sg19
S'/usr/share/fonts/truetype/ttf-indic-fonts-core/lohit_bn.ttf'
p605
sg21
g22
sbag7
(g8
g9
NtRp606
(dp607
g12
g13
sg14
S'DejaVu Sans'
p608
sg16
I400
sg17
g13
sg18
g13
sg19
S'/usr/share/fonts/truetype/ttf-dejavu/DejaVuSans.ttf'
p609
sg21
g22
sbag7
(g8
g9
NtRp610
(dp611
g12
g54
sg14
S'Ubuntu Mono'
p612
sg16
I400
sg17
g13
sg18
g13
sg19
S'/usr/share/fonts/truetype/ubuntu-font-family/UbuntuMono-RI.ttf'
p613
sg21
g22
sbag7
(g8
g9
NtRp614
(dp615
g12
g13
sg14
S'Latin Modern Roman Slanted'
p616
sg16
I400
sg17
g13
sg18
g13
sg19
S'/usr/share/texmf/fonts/opentype/public/lm/lmromanslant9-regular.otf'
p617
sg21
g22
sbag7
(g8
g9
NtRp618
(dp619
g12
g13
sg14
S'Latin Modern Mono'
p620
sg16
I400
sg17
g13
sg18
g13
sg19
S'/usr/share/texmf/fonts/opentype/public/lm/lmmono8-regular.otf'
p621
sg21
g22
sbag7
(g8
g9
NtRp622
(dp623
g12
g13
sg14
S'Purisa'
p624
sg16
I700
sg17
g13
sg18
g13
sg19
S'/usr/share/fonts/truetype/tlwg/Purisa-Bold.ttf'
p625
sg21
g22
sbag7
(g8
g9
NtRp626
(dp627
g12
g25
sg14
S'Latin Modern Sans Quotation'
p628
sg16
I700
sg17
g13
sg18
g13
sg19
S'/usr/share/texmf/fonts/opentype/public/lm/lmsansquot8-boldoblique.otf'
p629
sg21
g22
sbag7
(g8
g9
NtRp630
(dp631
g12
g13
sg14
S'FreeMono'
p632
sg16
I700
sg17
g13
sg18
g13
sg19
S'/usr/share/fonts/truetype/freefont/FreeMonoBold.ttf'
p633
sg21
g22
sbag7
(g8
g9
NtRp634
(dp635
g12
g13
sg14
S'Tlwg Typist'
p636
sg16
I700
sg17
g13
sg18
g13
sg19
S'/usr/share/fonts/truetype/tlwg/TlwgTypist-Bold.ttf'
p637
sg21
g22
sbag7
(g8
g9
NtRp638
(dp639
g12
g25
sg14
S'Latin Modern Mono Prop'
p640
sg16
I400
sg17
g13
sg18
g13
sg19
S'/usr/share/texmf/fonts/opentype/public/lm/lmmonoprop10-oblique.otf'
p641
sg21
g22
sbag7
(g8
g9
NtRp642
(dp643
g12
g13
sg14
S'Latin Modern Roman'
p644
sg16
I400
sg17
g13
sg18
g13
sg19
S'/usr/share/texmf/fonts/opentype/public/lm/lmroman9-regular.otf'
p645
sg21
g22
sbag7
(g8
g9
NtRp646
(dp647
g12
g25
sg14
S'Latin Modern Sans Demi Cond'
p648
sg16
I600
sg17
g192
sg18
g13
sg19
S'/usr/share/texmf/fonts/opentype/public/lm/lmsansdemicond10-oblique.otf'
p649
sg21
g22
sbag7
(g8
g9
NtRp650
(dp651
g12
g13
sg14
S'KacstBook'
p652
sg16
I400
sg17
g13
sg18
g13
sg19
S'/usr/share/fonts/truetype/kacst/KacstBook.ttf'
p653
sg21
g22
sbag7
(g8
g9
NtRp654
(dp655
g12
g13
sg14
S'DejaVu Sans'
p656
sg16
I200
sg17
g13
sg18
g13
sg19
S'/usr/share/fonts/truetype/dejavu/DejaVuSans-ExtraLight.ttf'
p657
sg21
g22
sbag7
(g8
g9
NtRp658
(dp659
g12
g13
sg14
S'KacstFarsi'
p660
sg16
I400
sg17
g13
sg18
g13
sg19
S'/usr/share/fonts/truetype/kacst/KacstFarsi.ttf'
p661
sg21
g22
sbag7
(g8
g9
NtRp662
(dp663
g12
g13
sg14
S'KacstPoster'
p664
sg16
I400
sg17
g13
sg18
g13
sg19
S'/usr/share/fonts/truetype/kacst/KacstPoster.ttf'
p665
sg21
g22
sbag7
(g8
g9
NtRp666
(dp667
g12
g13
sg14
S'Purisa'
p668
sg16
I400
sg17
g13
sg18
g13
sg19
S'/usr/share/fonts/truetype/tlwg/Purisa.ttf'
p669
sg21
g22
sbag7
(g8
g9
NtRp670
(dp671
g12
g13
sg14
S'NanumMyeongjo'
p672
sg16
I400
sg17
g13
sg18
g13
sg19
S'/usr/share/fonts/truetype/nanum/NanumMyeongjo.ttf'
p673
sg21
g22
sbag7
(g8
g9
NtRp674
(dp675
g12
g54
sg14
S'Ubuntu'
p676
sg16
I200
sg17
g13
sg18
g13
sg19
S'/usr/share/fonts/truetype/ubuntu-font-family/Ubuntu-LI.ttf'
p677
sg21
g22
sbag7
(g8
g9
NtRp678
(dp679
g12
g13
sg14
S'Latin Modern Roman Slanted'
p680
sg16
I400
sg17
g13
sg18
g13
sg19
S'/usr/share/texmf/fonts/opentype/public/lm/lmromanslant17-regular.otf'
p681
sg21
g22
sbag7
(g8
g9
NtRp682
(dp683
g12
g13
sg14
S'Latin Modern Sans Demi Cond'
p684
sg16
I600
sg17
g192
sg18
g13
sg19
S'/usr/share/texmf/fonts/opentype/public/lm/lmsansdemicond10-regular.otf'
p685
sg21
g22
sbag7
(g8
g9
NtRp686
(dp687
g12
g54
sg14
S'Ubuntu'
p688
sg16
I700
sg17
g13
sg18
g13
sg19
S'/usr/share/fonts/truetype/ubuntu-font-family/Ubuntu-BI.ttf'
p689
sg21
g22
sbag7
(g8
g9
NtRp690
(dp691
g12
g13
sg14
S'Pothana2000'
p692
sg16
I400
sg17
g13
sg18
g13
sg19
S'/usr/share/fonts/truetype/ttf-indic-fonts-core/Pothana2000.ttf'
p693
sg21
g22
sbag7
(g8
g9
NtRp694
(dp695
g12
g25
sg14
S'Latin Modern Mono Prop Light'
p696
sg16
I200
sg17
g13
sg18
g13
sg19
S'/usr/share/texmf/fonts/opentype/public/lm/lmmonoproplt10-oblique.otf'
p697
sg21
g22
sbag7
(g8
g9
NtRp698
(dp699
g12
g13
sg14
S'NanumGothic'
p700
sg16
I700
sg17
g13
sg18
g13
sg19
S'/usr/share/fonts/truetype/nanum/NanumGothicBold.ttf'
p701
sg21
g22
sbag7
(g8
g9
NtRp702
(dp703
g12
g54
sg14
S'Liberation Mono'
p704
sg16
I700
sg17
g13
sg18
g13
sg19
S'/usr/share/fonts/truetype/liberation/LiberationMono-BoldItalic.ttf'
p705
sg21
g22
sbag7
(g8
g9
NtRp706
(dp707
g12
g25
sg14
S'Latin Modern Mono Light Cond'
p708
sg16
I200
sg17
g192
sg18
g13
sg19
S'/usr/share/texmf/fonts/opentype/public/lm/lmmonoltcond10-oblique.otf'
p709
sg21
g22
sbag7
(g8
g9
NtRp710
(dp711
g12
g13
sg14
S'Latin Modern Roman'
p712
sg16
I700
sg17
g13
sg18
g13
sg19
S'/usr/share/texmf/fonts/opentype/public/lm/lmroman5-bold.otf'
p713
sg21
g22
sbag7
(g8
g9
NtRp714
(dp715
g12
g13
sg14
S'Padauk'
p716
sg16
I700
sg17
g13
sg18
g13
sg19
S'/usr/share/fonts/truetype/padauk/Padauk-bold.ttf'
p717
sg21
g22
sbag7
(g8
g9
NtRp718
(dp719
g12
g25
sg14
S'Loma'
p720
sg16
I700
sg17
g13
sg18
g13
sg19
S'/usr/share/fonts/truetype/tlwg/Loma-BoldOblique.ttf'
p721
sg21
g22
sbag7
(g8
g9
NtRp722
(dp723
g12
g13
sg14
S'TlwgTypewriter'
p724
sg16
I400
sg17
g13
sg18
g13
sg19
S'/usr/share/fonts/truetype/tlwg/TlwgTypewriter.ttf'
p725
sg21
g22
sbag7
(g8
g9
NtRp726
(dp727
g12
g54
sg14
S'Kinnari'
p728
sg16
I700
sg17
g13
sg18
g13
sg19
S'/usr/share/fonts/truetype/tlwg/Kinnari-BoldItalic.ttf'
p729
sg21
g22
sbag7
(g8
g9
NtRp730
(dp731
g12
g13
sg14
S'Ubuntu Mono'
p732
sg16
I700
sg17
g13
sg18
g13
sg19
S'/usr/share/fonts/truetype/ubuntu-font-family/UbuntuMono-B.ttf'
p733
sg21
g22
sbag7
(g8
g9
NtRp734
(dp735
g12
g13
sg14
S'Latin Modern Roman'
p736
sg16
I700
sg17
g13
sg18
g13
sg19
S'/usr/share/texmf/fonts/opentype/public/lm/lmroman7-bold.otf'
p737
sg21
g22
sbag7
(g8
g9
NtRp738
(dp739
g12
g13
sg14
S'FreeSerif'
p740
sg16
I700
sg17
g13
sg18
g13
sg19
S'/usr/share/fonts/truetype/freefont/FreeSerifBold.ttf'
p741
sg21
g22
sbag7
(g8
g9
NtRp742
(dp743
g12
g13
sg14
S'OpenSymbol'
p744
sg16
I400
sg17
g13
sg18
g13
sg19
S'/usr/share/fonts/truetype/openoffice/opens___.ttf'
p745
sg21
g22
sbag7
(g8
g9
NtRp746
(dp747
g12
g13
sg14
S'Latin Modern Sans'
p748
sg16
I400
sg17
g13
sg18
g13
sg19
S'/usr/share/texmf/fonts/opentype/public/lm/lmsans17-regular.otf'
p749
sg21
g22
sbag7
(g8
g9
NtRp750
(dp751
g12
g13
sg14
S'gargi'
p752
sg16
I400
sg17
g13
sg18
g13
sg19
S'/usr/share/fonts/truetype/ttf-indic-fonts-core/gargi.ttf'
p753
sg21
g22
sbag7
(g8
g9
NtRp754
(dp755
g12
g13
sg14
S'Latin Modern Roman'
p756
sg16
I400
sg17
g13
sg18
g13
sg19
S'/usr/share/texmf/fonts/opentype/public/lm/lmroman8-regular.otf'
p757
sg21
g22
sbag7
(g8
g9
NtRp758
(dp759
g12
g54
sg14
S'Norasi'
p760
sg16
I400
sg17
g13
sg18
g13
sg19
S'/usr/share/fonts/truetype/tlwg/Norasi-Italic.ttf'
p761
sg21
g22
sbag7
(g8
g9
NtRp762
(dp763
g12
g13
sg14
S'Latin Modern Mono Light'
p764
sg16
I700
sg17
g13
sg18
g13
sg19
S'/usr/share/texmf/fonts/opentype/public/lm/lmmonolt10-bold.otf'
p765
sg21
g22
sbag7
(g8
g9
NtRp766
(dp767
g12
g13
sg14
S'Khmer OS System'
p768
sg16
I400
sg17
g13
sg18
g13
sg19
S'/usr/share/fonts/truetype/ttf-khmeros-core/KhmerOSsys.ttf'
p769
sg21
g22
sbag7
(g8
g9
NtRp770
(dp771
g12
g13
sg14
S'KacstDecorative'
p772
sg16
I400
sg17
g13
sg18
g13
sg19
S'/usr/share/fonts/truetype/kacst/KacstDecorative.ttf'
p773
sg21
g22
sbag7
(g8
g9
NtRp774
(dp775
g12
g25
sg14
S'Tlwg Typist'
p776
sg16
I400
sg17
g13
sg18
g13
sg19
S'/usr/share/fonts/truetype/tlwg/TlwgTypist-Oblique.ttf'
p777
sg21
g22
sbag7
(g8
g9
NtRp778
(dp779
g12
g13
sg14
S'Norasi'
p780
sg16
I400
sg17
g13
sg18
g13
sg19
S'/usr/share/fonts/truetype/tlwg/Norasi.ttf'
p781
sg21
g22
sbag7
(g8
g9
NtRp782
(dp783
g12
g54
sg14
S'DejaVu Serif'
p784
sg16
I400
sg17
g192
sg18
g13
sg19
S'/usr/share/fonts/truetype/ttf-dejavu/DejaVuSerifCondensed-Italic.ttf'
p785
sg21
g22
sbag7
(g8
g9
NtRp786
(dp787
g12
g54
sg14
S'Latin Modern Roman'
p788
sg16
I500
sg17
g13
sg18
g13
sg19
S'/usr/share/texmf/fonts/opentype/public/lm/lmroman12-italic.otf'
p789
sg21
g22
sbag7
(g8
g9
NtRp790
(dp791
g12
g13
sg14
S'Mukti Narrow'
p792
sg16
I700
sg17
g13
sg18
g13
sg19
S'/usr/share/fonts/truetype/ttf-indic-fonts-core/MuktiNarrowBold.ttf'
p793
sg21
g22
sbag7
(g8
g9
NtRp794
(dp795
g12
g25
sg14
S'Latin Modern Sans'
p796
sg16
I400
sg17
g13
sg18
g13
sg19
S'/usr/share/texmf/fonts/opentype/public/lm/lmsans8-oblique.otf'
p797
sg21
g22
sbag7
(g8
g9
NtRp798
(dp799
g12
g54
sg14
S'Liberation Sans'
p800
sg16
I400
sg17
g13
sg18
g13
sg19
S'/usr/share/fonts/truetype/liberation/LiberationSans-Italic.ttf'
p801
sg21
g22
sbag7
(g8
g9
NtRp802
(dp803
g12
g25
sg14
S'Umpush'
p804
sg16
I700
sg17
g13
sg18
g13
sg19
S'/usr/share/fonts/truetype/tlwg/Umpush-BoldOblique.ttf'
p805
sg21
g22
sbag7
(g8
g9
NtRp806
(dp807
g12
g13
sg14
S'Ubuntu'
p808
sg16
I700
sg17
g13
sg18
g13
sg19
S'/usr/share/fonts/truetype/ubuntu-font-family/Ubuntu-B.ttf'
p809
sg21
g22
sbag7
(g8
g9
NtRp810
(dp811
g12
g25
sg14
S'FreeSans'
p812
sg16
I700
sg17
g13
sg18
g13
sg19
S'/usr/share/fonts/truetype/freefont/FreeSansBoldOblique.ttf'
p813
sg21
g22
sbag7
(g8
g9
NtRp814
(dp815
g12
g25
sg14
S'Latin Modern Sans'
p816
sg16
I400
sg17
g13
sg18
g13
sg19
S'/usr/share/texmf/fonts/opentype/public/lm/lmsans12-oblique.otf'
p817
sg21
g22
sbag7
(g8
g9
NtRp818
(dp819
g12
g13
sg14
S'Latin Modern Sans'
p820
sg16
I400
sg17
g13
sg18
g13
sg19
S'/usr/share/texmf/fonts/opentype/public/lm/lmsans12-regular.otf'
p821
sg21
g22
sbag7
(g8
g9
NtRp822
(dp823
g12
g13
sg14
S'Tlwg Typo'
p824
sg16
I700
sg17
g13
sg18
g13
sg19
S'/usr/share/fonts/truetype/tlwg/TlwgTypo-Bold.ttf'
p825
sg21
g22
sbag7
(g8
g9
NtRp826
(dp827
g12
g13
sg14
S'Latin Modern Roman'
p828
sg16
I700
sg17
g13
sg18
g13
sg19
S'/usr/share/texmf/fonts/opentype/public/lm/lmroman9-bold.otf'
p829
sg21
g22
sbag7
(g8
g9
NtRp830
(dp831
g12
g54
sg14
S'Ubuntu'
p832
sg16
I400
sg17
g13
sg18
g13
sg19
S'/usr/share/fonts/truetype/ubuntu-font-family/Ubuntu-RI.ttf'
p833
sg21
g22
sbag7
(g8
g9
NtRp834
(dp835
g12
g25
sg14
S'Waree'
p836
sg16
I400
sg17
g13
sg18
g13
sg19
S'/usr/share/fonts/truetype/tlwg/Waree-Oblique.ttf'
p837
sg21
g22
sbag7
(g8
g9
NtRp838
(dp839
g12
g54
sg14
S'Liberation Serif'
p840
sg16
I400
sg17
g13
sg18
g13
sg19
S'/usr/share/fonts/truetype/liberation/LiberationSerif-Italic.ttf'
p841
sg21
g22
sbag7
(g8
g9
NtRp842
(dp843
g12
g13
sg14
S'TlwgTypewriter'
p844
sg16
I700
sg17
g13
sg18
g13
sg19
S'/usr/share/fonts/truetype/tlwg/TlwgTypewriter-Bold.ttf'
p845
sg21
g22
sbag7
(g8
g9
NtRp846
(dp847
g12
g25
sg14
S'Waree'
p848
sg16
I700
sg17
g13
sg18
g13
sg19
S'/usr/share/fonts/truetype/tlwg/Waree-BoldOblique.ttf'
p849
sg21
g22
sbag7
(g8
g9
NtRp850
(dp851
g12
g13
sg14
S'FreeSans'
p852
sg16
I400
sg17
g13
sg18
g13
sg19
S'/usr/share/fonts/truetype/freefont/FreeSans.ttf'
p853
sg21
g22
sbag7
(g8
g9
NtRp854
(dp855
g12
g25
sg14
S'Kinnari'
p856
sg16
I400
sg17
g13
sg18
g13
sg19
S'/usr/share/fonts/truetype/tlwg/Kinnari-Oblique.ttf'
p857
sg21
g22
sbag7
(g8
g9
NtRp858
(dp859
g12
g13
sg14
S'Waree'
p860
sg16
I700
sg17
g13
sg18
g13
sg19
S'/usr/share/fonts/truetype/tlwg/Waree-Bold.ttf'
p861
sg21
g22
sbag7
(g8
g9
NtRp862
(dp863
g12
g54
sg14
S'FreeSerif'
p864
sg16
I700
sg17
g13
sg18
g13
sg19
S'/usr/share/fonts/truetype/freefont/FreeSerifBoldItalic.ttf'
p865
sg21
g22
sbag7
(g8
g9
NtRp866
(dp867
g12
g54
sg14
S'Latin Modern Roman'
p868
sg16
I500
sg17
g13
sg18
g13
sg19
S'/usr/share/texmf/fonts/opentype/public/lm/lmroman9-italic.otf'
p869
sg21
g22
sbag7
(g8
g9
NtRp870
(dp871
g12
g13
sg14
S'KacstArt'
p872
sg16
I400
sg17
g13
sg18
g13
sg19
S'/usr/share/fonts/truetype/kacst/KacstArt.ttf'
p873
sg21
g22
sbag7
(g8
g9
NtRp874
(dp875
g12
g25
sg14
S'Tlwg Typo'
p876
sg16
I700
sg17
g13
sg18
g13
sg19
S'/usr/share/fonts/truetype/tlwg/TlwgTypo-BoldOblique.ttf'
p877
sg21
g22
sbag7
(g8
g9
NtRp878
(dp879
g12
g13
sg14
S'Vemana2000'
p880
sg16
I400
sg17
g13
sg18
g13
sg19
S'/usr/share/fonts/truetype/ttf-indic-fonts-core/Vemana.ttf'
p881
sg21
g22
sbag7
(g8
g9
NtRp882
(dp883
g12
g13
sg14
S'Umpush'
p884
sg16
I200
sg17
g13
sg18
g13
sg19
S'/usr/share/fonts/truetype/tlwg/Umpush-Light.ttf'
p885
sg21
g22
sbag7
(g8
g9
NtRp886
(dp887
g12
g13
sg14
S'Latin Modern Roman Dunhill'
p888
sg16
I400
sg17
g13
sg18
g13
sg19
S'/usr/share/texmf/fonts/opentype/public/lm/lmromandunh10-regular.otf'
p889
sg21
g22
sbag7
(g8
g9
NtRp890
(dp891
g12
g13
sg14
S'Kedage'
p892
sg16
I400
sg17
g13
sg18
g13
sg19
S'/usr/share/fonts/truetype/ttf-indic-fonts-core/Kedage-n.ttf'
p893
sg21
g22
sbag7
(g8
g9
NtRp894
(dp895
g12
g13
sg14
S'Lohit Tamil'
p896
sg16
I400
sg17
g13
sg18
g13
sg19
S'/usr/share/fonts/truetype/ttf-indic-fonts-core/lohit_ta.ttf'
p897
sg21
g22
sbag7
(g8
g9
NtRp898
(dp899
g12
g13
sg14
S'Liberation Sans'
p900
sg16
I400
sg17
g13
sg18
g13
sg19
S'/usr/share/fonts/truetype/liberation/LiberationSans-Regular.ttf'
p901
sg21
g22
sbag7
(g8
g9
NtRp902
(dp903
g12
g13
sg14
S'Ubuntu Condensed'
p904
sg16
I400
sg17
g192
sg18
g13
sg19
S'/usr/share/fonts/truetype/ubuntu-font-family/Ubuntu-C.ttf'
p905
sg21
g22
sbag7
(g8
g9
NtRp906
(dp907
g12
g13
sg14
S'Kinnari'
p908
sg16
I400
sg17
g13
sg18
g13
sg19
S'/usr/share/fonts/truetype/tlwg/Kinnari.ttf'
p909
sg21
g22
sbag7
(g8
g9
NtRp910
(dp911
g12
g13
sg14
S'Latin Modern Sans'
p912
sg16
I400
sg17
g13
sg18
g13
sg19
S'/usr/share/texmf/fonts/opentype/public/lm/lmsans8-regular.otf'
p913
sg21
g22
sbag7
(g8
g9
NtRp914
(dp915
g12
g13
sg14
S'Latin Modern Mono Prop Light'
p916
sg16
I700
sg17
g13
sg18
g13
sg19
S'/usr/share/texmf/fonts/opentype/public/lm/lmmonoproplt10-bold.otf'
p917
sg21
g22
sbag7
(g8
g9
NtRp918
(dp919
g12
g54
sg14
S'Ubuntu Mono'
p920
sg16
I700
sg17
g13
sg18
g13
sg19
S'/usr/share/fonts/truetype/ubuntu-font-family/UbuntuMono-BI.ttf'
p921
sg21
g22
sbag7
(g8
g9
NtRp922
(dp923
g12
g25
sg14
S'Latin Modern Mono Light'
p924
sg16
I700
sg17
g13
sg18
g13
sg19
S'/usr/share/texmf/fonts/opentype/public/lm/lmmonolt10-boldoblique.otf'
p925
sg21
g22
sbag7
(g8
g9
NtRp926
(dp927
g12
g13
sg14
S'Latin Modern Roman'
p928
sg16
I700
sg17
g13
sg18
g13
sg19
S'/usr/share/texmf/fonts/opentype/public/lm/lmroman8-bold.otf'
p929
sg21
g22
sbag7
(g8
g9
NtRp930
(dp931
g12
g13
sg14
S'Kinnari'
p932
sg16
I700
sg17
g13
sg18
g13
sg19
S'/usr/share/fonts/truetype/tlwg/Kinnari-Bold.ttf'
p933
sg21
g22
sbag7
(g8
g9
NtRp934
(dp935
g12
g25
sg14
S'FreeMono'
p936
sg16
I400
sg17
g13
sg18
g13
sg19
S'/usr/share/fonts/truetype/freefont/FreeMonoOblique.ttf'
p937
sg21
g22
sbag7
(g8
g9
NtRp938
(dp939
g12
g13
sg14
S'Latin Modern Roman Unslanted'
p940
sg16
I400
sg17
g13
sg18
g13
sg19
S'/usr/share/texmf/fonts/opentype/public/lm/lmromanunsl10-regular.otf'
p941
sg21
g22
sbag7
(g8
g9
NtRp942
(dp943
g12
g13
sg14
S'TlwgMono'
p944
sg16
I400
sg17
g13
sg18
g13
sg19
S'/usr/share/fonts/truetype/tlwg/TlwgMono.ttf'
p945
sg21
g22
sbag7
(g8
g9
NtRp946
(dp947
g12
g25
sg14
S'TlwgTypewriter'
p948
sg16
I700
sg17
g13
sg18
g13
sg19
S'/usr/share/fonts/truetype/tlwg/TlwgTypewriter-BoldOblique.ttf'
p949
sg21
g22
sbag7
(g8
g9
NtRp950
(dp951
g12
g25
sg14
S'DejaVu Sans'
p952
sg16
I400
sg17
g192
sg18
g13
sg19
S'/usr/share/fonts/truetype/ttf-dejavu/DejaVuSansCondensed-Oblique.ttf'
p953
sg21
g22
sbag7
(g8
g9
NtRp954
(dp955
g12
g13
sg14
S'Latin Modern Roman Caps'
p956
sg16
I400
sg17
g13
sg18
g13
sg19
S'/usr/share/texmf/fonts/opentype/public/lm/lmromancaps10-regular.otf'
p957
sg21
g22
sbag7
(g8
g9
NtRp958
(dp959
g12
g13
sg14
S'KacstTitleL'
p960
sg16
I400
sg17
g13
sg18
g13
sg19
S'/usr/share/fonts/truetype/kacst/KacstTitleL.ttf'
p961
sg21
g22
sbag7
(g8
g9
NtRp962
(dp963
g12
g13
sg14
S'Latin Modern Sans'
p964
sg16
I400
sg17
g13
sg18
g13
sg19
S'/usr/share/texmf/fonts/opentype/public/lm/lmsans9-regular.otf'
p965
sg21
g22
sbag7
(g8
g9
NtRp966
(dp967
g12
g25
sg14
S'Tlwg Typo'
p968
sg16
I400
sg17
g13
sg18
g13
sg19
S'/usr/share/fonts/truetype/tlwg/TlwgTypo-Oblique.ttf'
p969
sg21
g22
sbag7
(g8
g9
NtRp970
(dp971
g12
g25
sg14
S'Latin Modern Roman Caps'
p972
sg16
I500
sg17
g13
sg18
g13
sg19
S'/usr/share/texmf/fonts/opentype/public/lm/lmromancaps10-oblique.otf'
p973
sg21
g22
sbag7
(g8
g9
NtRp974
(dp975
g12
g25
sg14
S'TlwgMono'
p976
sg16
I700
sg17
g13
sg18
g13
sg19
S'/usr/share/fonts/truetype/tlwg/TlwgMono-BoldOblique.ttf'
p977
sg21
g22
sbag7
(g8
g9
NtRp978
(dp979
g12
g13
sg14
S'Latin Modern Roman Slanted'
p980
sg16
I400
sg17
g13
sg18
g13
sg19
S'/usr/share/texmf/fonts/opentype/public/lm/lmromanslant10-regular.otf'
p981
sg21
g22
sbag7
(g8
g9
NtRp982
(dp983
g12
g54
sg14
S'Ubuntu'
p984
sg16
I500
sg17
g13
sg18
g13
sg19
S'/usr/share/fonts/truetype/ubuntu-font-family/Ubuntu-MI.ttf'
p985
sg21
g22
sbag7
(g8
g9
NtRp986
(dp987
g12
g25
sg14
S'Purisa'
p988
sg16
I400
sg17
g13
sg18
g13
sg19
S'/usr/share/fonts/truetype/tlwg/Purisa-Oblique.ttf'
p989
sg21
g22
sbag7
(g8
g9
NtRp990
(dp991
g12
g25
sg14
S'Latin Modern Sans Quotation'
p992
sg16
I700
sg17
g13
sg18
g13
sg19
S'/usr/share/texmf/fonts/opentype/public/lm/lmsansquot8-oblique.otf'
p993
sg21
g22
sbag7
(g8
g9
NtRp994
(dp995
g12
g54
sg14
S'Kinnari'
p996
sg16
I400
sg17
g13
sg18
g13
sg19
S'/usr/share/fonts/truetype/tlwg/Kinnari-Italic.ttf'
p997
sg21
g22
sbag7
(g8
g9
NtRp998
(dp999
g12
g25
sg14
S'Sawasdee'
p1000
sg16
I700
sg17
g13
sg18
g13
sg19
S'/usr/share/fonts/truetype/tlwg/Sawasdee-BoldOblique.ttf'
p1001
sg21
g22
sbag7
(g8
g9
NtRp1002
(dp1003
g12
g13
sg14
S'Sawasdee'
p1004
sg16
I700
sg17
g13
sg18
g13
sg19
S'/usr/share/fonts/truetype/tlwg/Sawasdee-Bold.ttf'
p1005
sg21
g22
sbag7
(g8
g9
NtRp1006
(dp1007
g12
g13
sg14
S'Padauk Book'
p1008
sg16
I400
sg17
g13
sg18
g13
sg19
S'/usr/share/fonts/truetype/padauk/Padauk-book.ttf'
p1009
sg21
g22
sbag7
(g8
g9
NtRp1010
(dp1011
g12
g13
sg14
S'KacstDigital'
p1012
sg16
I400
sg17
g13
sg18
g13
sg19
S'/usr/share/fonts/truetype/kacst/KacstDigital.ttf'
p1013
sg21
g22
sbag7
(g8
g9
NtRp1014
(dp1015
g12
g13
sg14
S'Saab'
p1016
sg16
I400
sg17
g13
sg18
g13
sg19
S'/usr/share/fonts/truetype/ttf-punjabi-fonts/Saab.ttf'
p1017
sg21
g22
sbag7
(g8
g9
NtRp1018
(dp1019
g12
g13
sg14
S'KacstOffice'
p1020
sg16
I400
sg17
g13
sg18
g13
sg19
S'/usr/share/fonts/truetype/kacst/KacstOffice.ttf'
p1021
sg21
g22
sbag7
(g8
g9
NtRp1022
(dp1023
g12
g13
sg14
S'Abyssinica SIL'
p1024
sg16
I400
sg17
g13
sg18
g13
sg19
S'/usr/share/fonts/truetype/abyssinica/AbyssinicaSIL-R.ttf'
p1025
sg21
g22
sbag7
(g8
g9
NtRp1026
(dp1027
g12
g13
sg14
S'Lohit Gujarati'
p1028
sg16
I400
sg17
g13
sg18
g13
sg19
S'/usr/share/fonts/truetype/ttf-indic-fonts-core/lohit_gu.ttf'
p1029
sg21
g22
sbag7
(g8
g9
NtRp1030
(dp1031
g12
g25
sg14
S'Sawasdee'
p1032
sg16
I400
sg17
g13
sg18
g13
sg19
S'/usr/share/fonts/truetype/tlwg/Sawasdee-Oblique.ttf'
p1033
sg21
g22
sbag7
(g8
g9
NtRp1034
(dp1035
g12
g54
sg14
S'Latin Modern Roman'
p1036
sg16
I700
sg17
g13
sg18
g13
sg19
S'/usr/share/texmf/fonts/opentype/public/lm/lmroman10-bolditalic.otf'
p1037
sg21
g22
sbag7
(g8
g9
NtRp1038
(dp1039
g12
g25
sg14
S'Latin Modern Sans'
p1040
sg16
I700
sg17
g13
sg18
g13
sg19
S'/usr/share/texmf/fonts/opentype/public/lm/lmsans10-boldoblique.otf'
p1041
sg21
g22
sbag7
(g8
g9
NtRp1042
(dp1043
g12
g13
sg14
S'Khmer OS'
p1044
sg16
I400
sg17
g13
sg18
g13
sg19
S'/usr/share/fonts/truetype/ttf-khmeros-core/KhmerOS.ttf'
p1045
sg21
g22
sbag7
(g8
g9
NtRp1046
(dp1047
g12
g13
sg14
S'Padauk'
p1048
sg16
I400
sg17
g13
sg18
g13
sg19
S'/usr/share/fonts/truetype/padauk/Padauk.ttf'
p1049
sg21
g22
sbag7
(g8
g9
NtRp1050
(dp1051
g12
g13
sg14
S'Latin Modern Mono Slanted'
p1052
sg16
I400
sg17
g13
sg18
g13
sg19
S'/usr/share/texmf/fonts/opentype/public/lm/lmmonoslant10-regular.otf'
p1053
sg21
g22
sbag7
(g8
g9
NtRp1054
(dp1055
g12
g13
sg14
S'Loma'
p1056
sg16
I400
sg17
g13
sg18
g13
sg19
S'/usr/share/fonts/truetype/tlwg/Loma.ttf'
p1057
sg21
g22
sbag7
(g8
g9
NtRp1058
(dp1059
g12
g25
sg14
S'Garuda'
p1060
sg16
I400
sg17
g13
sg18
g13
sg19
S'/usr/share/fonts/truetype/tlwg/Garuda-Oblique.ttf'
p1061
sg21
g22
sbag7
(g8
g9
NtRp1062
(dp1063
g12
g13
sg14
S'Latin Modern Mono Prop Light'
p1064
sg16
I400
sg17
g13
sg18
g13
sg19
S'/usr/share/texmf/fonts/opentype/public/lm/lmmonoproplt10-regular.otf'
p1065
sg21
g22
sbag7
(g8
g9
NtRp1066
(dp1067
g12
g13
sg14
S'Loma'
p1068
sg16
I700
sg17
g13
sg18
g13
sg19
S'/usr/share/fonts/truetype/tlwg/Loma-Bold.ttf'
p1069
sg21
g22
sbag7
(g8
g9
NtRp1070
(dp1071
g12
g25
sg14
S'Latin Modern Sans'
p1072
sg16
I400
sg17
g13
sg18
g13
sg19
S'/usr/share/texmf/fonts/opentype/public/lm/lmsans17-oblique.otf'
p1073
sg21
g22
sbag7
(g8
g9
NtRp1074
(dp1075
g12
g25
sg14
S'Garuda'
p1076
sg16
I700
sg17
g13
sg18
g13
sg19
S'/usr/share/fonts/truetype/tlwg/Garuda-BoldOblique.ttf'
p1077
sg21
g22
sbag7
(g8
g9
NtRp1078
(dp1079
g12
g13
sg14
S'KacstLetter'
p1080
sg16
I400
sg17
g13
sg18
g13
sg19
S'/usr/share/fonts/truetype/kacst/KacstLetter.ttf'
p1081
sg21
g22
sbag7
(g8
g9
NtRp1082
(dp1083
g12
g13
sg14
S'KacstPen'
p1084
sg16
I400
sg17
g13
sg18
g13
sg19
S'/usr/share/fonts/truetype/kacst/KacstPen.ttf'
p1085
sg21
g22
sbag7
(g8
g9
NtRp1086
(dp1087
g12
g13
sg14
S'Latin Modern Mono'
p1088
sg16
I400
sg17
g13
sg18
g13
sg19
S'/usr/share/texmf/fonts/opentype/public/lm/lmmono9-regular.otf'
p1089
sg21
g22
sbag7
(g8
g9
NtRp1090
(dp1091
g12
g25
sg14
S'Latin Modern Sans'
p1092
sg16
I400
sg17
g13
sg18
g13
sg19
S'/usr/share/texmf/fonts/opentype/public/lm/lmsans9-oblique.otf'
p1093
sg21
g22
sbag7
(g8
g9
NtRp1094
(dp1095
g12
g13
sg14
S'Latin Modern Roman Slanted'
p1096
sg16
I700
sg17
g13
sg18
g13
sg19
S'/usr/share/texmf/fonts/opentype/public/lm/lmromanslant10-bold.otf'
p1097
sg21
g22
sbag7
(g8
g9
NtRp1098
(dp1099
g12
g54
sg14
S'FreeSerif'
p1100
sg16
I400
sg17
g13
sg18
g13
sg19
S'/usr/share/fonts/truetype/freefont/FreeSerifItalic.ttf'
p1101
sg21
g22
sbag7
(g8
g9
NtRp1102
(dp1103
g12
g13
sg14
S'Ubuntu'
p1104
sg16
I200
sg17
g13
sg18
g13
sg19
S'/usr/share/fonts/truetype/ubuntu-font-family/Ubuntu-L.ttf'
p1105
sg21
g22
sbag7
(g8
g9
NtRp1106
(dp1107
g12
g13
sg14
S'Latin Modern Roman'
p1108
sg16
I700
sg17
g13
sg18
g13
sg19
S'/usr/share/texmf/fonts/opentype/public/lm/lmroman10-bold.otf'
p1109
sg21
g22
sbag7
(g8
g9
NtRp1110
(dp1111
g12
g13
sg14
S'Waree'
p1112
sg16
I400
sg17
g13
sg18
g13
sg19
S'/usr/share/fonts/truetype/tlwg/Waree.ttf'
p1113
sg21
g22
sbag7
(g8
g9
NtRp1114
(dp1115
g12
g25
sg14
S'TlwgTypewriter'
p1116
sg16
I400
sg17
g13
sg18
g13
sg19
S'/usr/share/fonts/truetype/tlwg/TlwgTypewriter-Oblique.ttf'
p1117
sg21
g22
sbag7
(g8
g9
NtRp1118
(dp1119
g12
g54
sg14
S'Liberation Sans Narrow'
p1120
sg16
I400
sg17
g192
sg18
g13
sg19
S'/usr/share/fonts/truetype/liberation/LiberationSansNarrow-Italic.ttf'
p1121
sg21
g22
sbag7
(g8
g9
NtRp1122
(dp1123
g12
g25
sg14
S'Latin Modern Mono Prop Light'
p1124
sg16
I700
sg17
g13
sg18
g13
sg19
S'/usr/share/texmf/fonts/opentype/public/lm/lmmonoproplt10-boldoblique.otf'
p1125
sg21
g22
sbasS'defaultFamily'
p1126
(dp1127
S'afm'
p1128
S'Helvetica'
p1129
sS'ttf'
p1130
S'Bitstream Vera Sans'
p1131
ssS'ttffiles'
p1132
(lp1133
S'/usr/local/lib/python2.7/dist-packages/matplotlib/mpl-data/fonts/ttf/VeraSe.ttf'
p1134
aS'/usr/local/lib/python2.7/dist-packages/matplotlib/mpl-data/fonts/ttf/VeraMoBI.ttf'
p1135
aS'/usr/local/lib/python2.7/dist-packages/matplotlib/mpl-data/fonts/ttf/STIXGeneral.ttf'
p1136
aS'/usr/local/lib/python2.7/dist-packages/matplotlib/mpl-data/fonts/ttf/STIXSizFourSymReg.ttf'
p1137
aS'/usr/local/lib/python2.7/dist-packages/matplotlib/mpl-data/fonts/ttf/STIXGeneralBol.ttf'
p1138
aS'/usr/local/lib/python2.7/dist-packages/matplotlib/mpl-data/fonts/ttf/cmr10.ttf'
p1139
aS'/usr/local/lib/python2.7/dist-packages/matplotlib/mpl-data/fonts/ttf/STIXNonUniBol.ttf'
p1140
aS'/usr/local/lib/python2.7/dist-packages/matplotlib/mpl-data/fonts/ttf/STIXSizTwoSymReg.ttf'
p1141
aS'/usr/local/lib/python2.7/dist-packages/matplotlib/mpl-data/fonts/ttf/STIXNonUniIta.ttf'
p1142
aS'/usr/local/lib/python2.7/dist-packages/matplotlib/mpl-data/fonts/ttf/VeraBd.ttf'
p1143
aS'/usr/local/lib/python2.7/dist-packages/matplotlib/mpl-data/fonts/ttf/STIXSizThreeSymBol.ttf'
p1144
aS'/usr/local/lib/python2.7/dist-packages/matplotlib/mpl-data/fonts/ttf/STIXSizOneSymBol.ttf'
p1145
aS'/usr/local/lib/python2.7/dist-packages/matplotlib/mpl-data/fonts/ttf/VeraIt.ttf'
p1146
aS'/usr/local/lib/python2.7/dist-packages/matplotlib/mpl-data/fonts/ttf/STIXGeneralBolIta.ttf'
p1147
aS'/usr/local/lib/python2.7/dist-packages/matplotlib/mpl-data/fonts/ttf/cmsy10.ttf'
p1148
aS'/usr/local/lib/python2.7/dist-packages/matplotlib/mpl-data/fonts/ttf/cmss10.ttf'
p1149
aS'/usr/local/lib/python2.7/dist-packages/matplotlib/mpl-data/fonts/ttf/STIXNonUniBolIta.ttf'
p1150
aS'/usr/local/lib/python2.7/dist-packages/matplotlib/mpl-data/fonts/ttf/STIXSizThreeSymReg.ttf'
p1151
aS'/usr/local/lib/python2.7/dist-packages/matplotlib/mpl-data/fonts/ttf/cmmi10.ttf'
p1152
aS'/usr/local/lib/python2.7/dist-packages/matplotlib/mpl-data/fonts/ttf/cmb10.ttf'
p1153
aS'/usr/local/lib/python2.7/dist-packages/matplotlib/mpl-data/fonts/ttf/STIXSizFiveSymReg.ttf'
p1154
aS'/usr/local/lib/python2.7/dist-packages/matplotlib/mpl-data/fonts/ttf/STIXSizTwoSymBol.ttf'
p1155
aS'/usr/local/lib/python2.7/dist-packages/matplotlib/mpl-data/fonts/ttf/STIXSizFourSymBol.ttf'
p1156
aS'/usr/local/lib/python2.7/dist-packages/matplotlib/mpl-data/fonts/ttf/VeraMoBd.ttf'
p1157
aS'/usr/local/lib/python2.7/dist-packages/matplotlib/mpl-data/fonts/ttf/VeraMono.ttf'
p1158
aS'/usr/local/lib/python2.7/dist-packages/matplotlib/mpl-data/fonts/ttf/VeraBI.ttf'
p1159
aS'/usr/local/lib/python2.7/dist-packages/matplotlib/mpl-data/fonts/ttf/VeraSeBd.ttf'
p1160
aS'/usr/local/lib/python2.7/dist-packages/matplotlib/mpl-data/fonts/ttf/STIXNonUni.ttf'
p1161
aS'/usr/local/lib/python2.7/dist-packages/matplotlib/mpl-data/fonts/ttf/Vera.ttf'
p1162
aS'/usr/local/lib/python2.7/dist-packages/matplotlib/mpl-data/fonts/ttf/cmex10.ttf'
p1163
aS'/usr/local/lib/python2.7/dist-packages/matplotlib/mpl-data/fonts/ttf/VeraMoIt.ttf'
p1164
aS'/usr/local/lib/python2.7/dist-packages/matplotlib/mpl-data/fonts/ttf/STIXSizOneSymReg.ttf'
p1165
aS'/usr/local/lib/python2.7/dist-packages/matplotlib/mpl-data/fonts/ttf/cmtt10.ttf'
p1166
aS'/usr/local/lib/python2.7/dist-packages/matplotlib/mpl-data/fonts/ttf/STIXGeneralItalic.ttf'
p1167
aS'/usr/share/fonts/truetype/kacst/KacstTitle.ttf'
p1168
aS'/usr/share/texmf/fonts/opentype/public/lm/lmroman8-italic.otf'
p1169
aS'/usr/share/fonts/truetype/ttf-indic-fonts-core/Malige-b.ttf'
p1170
aS'/usr/share/fonts/truetype/ubuntu-font-family/Ubuntu-M.ttf'
p1171
aS'/usr/share/texmf/fonts/opentype/public/lm/lmroman7-regular.otf'
p1172
aS'/usr/share/fonts/truetype/tlwg/Umpush.ttf'
p1173
aS'/usr/share/texmf/fonts/opentype/public/lm/lmroman6-regular.otf'
p1174
aS'/usr/share/fonts/truetype/tlwg/Garuda-Bold.ttf'
p1175
aS'/usr/share/fonts/truetype/dejavu/DejaVuSerifCondensed-BoldItalic.ttf'
p1176
aS'/usr/share/fonts/truetype/tlwg/TlwgTypist-BoldOblique.ttf'
p1177
aS'/usr/share/fonts/truetype/freefont/FreeSerif.ttf'
p1178
aS'/usr/share/fonts/truetype/kacst/KacstScreen.ttf'
p1179
aS'/usr/share/texmf/fonts/opentype/public/lm/lmroman10-regular.otf'
p1180
aS'/usr/share/fonts/truetype/ttf-dejavu/DejaVuSansCondensed.ttf'
p1181
aS'/usr/share/fonts/truetype/tlwg/Loma-Oblique.ttf'
p1182
aS'/usr/share/fonts/truetype/tlwg/Norasi-Oblique.ttf'
p1183
aS'/usr/share/fonts/truetype/liberation/LiberationSansNarrow-Regular.ttf'
p1184
aS'/usr/share/texmf/fonts/opentype/public/lm/lmsans10-bold.otf'
p1185
aS'/usr/share/texmf/fonts/opentype/public/lm/lmmonolt10-oblique.otf'
p1186
aS'/usr/share/texmf/fonts/opentype/public/lm/lmroman10-italic.otf'
p1187
aS'/usr/share/fonts/truetype/ttf-dejavu/DejaVuSansMono.ttf'
p1188
aS'/usr/share/fonts/truetype/ttf-punjabi-fonts/lohit_pa.ttf'
p1189
aS'/usr/share/fonts/truetype/ttf-indic-fonts-core/Meera_04.ttf'
p1190
aS'/usr/share/fonts/truetype/fonts-japanese-gothic.ttf'
p1191
aS'/usr/share/fonts/truetype/liberation/LiberationMono-Bold.ttf'
p1192
aS'/usr/share/fonts/truetype/dejavu/DejaVuSerif.ttf'
p1193
aS'/usr/share/fonts/truetype/tlwg/Umpush-LightOblique.ttf'
p1194
aS'/usr/share/fonts/truetype/dejavu/DejaVuSans-Bold.ttf'
p1195
aS'/usr/share/fonts/truetype/freefont/FreeMonoBoldOblique.ttf'
p1196
aS'/usr/share/fonts/truetype/tlwg/TlwgTypo.ttf'
p1197
aS'/usr/share/fonts/truetype/dejavu/DejaVuSerif-BoldItalic.ttf'
p1198
aS'/usr/share/fonts/truetype/padauk/Padauk-bookbold.ttf'
p1199
aS'/usr/share/fonts/truetype/sinhala/lklug.ttf'
p1200
aS'/usr/share/fonts/truetype/ttf-indic-fonts-core/Rachana_04.ttf'
p1201
aS'/usr/share/fonts/truetype/ttf-dejavu/DejaVuSerif.ttf'
p1202
aS'/usr/share/texmf/fonts/opentype/public/lm/lmmono10-regular.otf'
p1203
aS'/usr/share/fonts/truetype/liberation/LiberationSansNarrow-Bold.ttf'
p1204
aS'/usr/share/fonts/truetype/freefont/FreeSansOblique.ttf'
p1205
aS'/usr/share/fonts/truetype/liberation/LiberationSerif-Regular.ttf'
p1206
aS'/usr/share/texmf/fonts/opentype/public/lm/lmromandunh10-oblique.otf'
p1207
aS'/usr/share/fonts/truetype/liberation/LiberationMono-Regular.ttf'
p1208
aS'/usr/share/fonts/truetype/ubuntu-font-family/Ubuntu-R.ttf'
p1209
aS'/usr/share/fonts/truetype/liberation/LiberationSans-Bold.ttf'
p1210
aS'/usr/share/fonts/truetype/ttf-indic-fonts-core/lohit_hi.ttf'
p1211
aS'/usr/share/fonts/truetype/dejavu/DejaVuSerifCondensed-Bold.ttf'
p1212
aS'/usr/share/fonts/truetype/ttf-dejavu/DejaVuSans-Oblique.ttf'
p1213
aS'/usr/share/texmf/fonts/opentype/public/lm/lmmonolt10-regular.otf'
p1214
aS'/usr/share/texmf/fonts/opentype/public/lm/lmsans10-regular.otf'
p1215
aS'/usr/share/texmf/fonts/opentype/public/lm/lmmonocaps10-regular.otf'
p1216
aS'/usr/share/fonts/truetype/dejavu/DejaVuSans-BoldOblique.ttf'
p1217
aS'/usr/share/fonts/truetype/ttf-dejavu/DejaVuSans-BoldOblique.ttf'
p1218
aS'/usr/share/fonts/truetype/dejavu/DejaVuSans-Oblique.ttf'
p1219
aS'/usr/share/texmf/fonts/opentype/public/lm/lmroman12-regular.otf'
p1220
aS'/usr/share/fonts/truetype/tlwg/TlwgTypist.ttf'
p1221
aS'/usr/share/fonts/truetype/nanum/NanumGothic.ttf'
p1222
aS'/usr/share/fonts/truetype/tlwg/Garuda.ttf'
p1223
aS'/usr/share/fonts/truetype/ttf-dejavu/DejaVuSansCondensed-BoldOblique.ttf'
p1224
aS'/usr/share/fonts/truetype/tlwg/TlwgMono-Oblique.ttf'
p1225
aS'/usr/share/texmf/fonts/opentype/public/lm/lmsans10-oblique.otf'
p1226
aS'/usr/share/fonts/truetype/tlwg/TlwgMono-Bold.ttf'
p1227
aS'/usr/share/fonts/truetype/liberation/LiberationMono-Italic.ttf'
p1228
aS'/usr/share/fonts/truetype/tibetan-machine/TibetanMachineUni.ttf'
p1229
aS'/usr/share/fonts/truetype/liberation/LiberationSerif-BoldItalic.ttf'
p1230
aS'/usr/share/texmf/fonts/opentype/public/lm/lmroman7-italic.otf'
p1231
aS'/usr/share/fonts/truetype/dejavu/DejaVuSerif-Italic.ttf'
p1232
aS'/usr/share/texmf/fonts/opentype/public/lm/lmsansquot8-regular.otf'
p1233
aS'/usr/share/texmf/fonts/opentype/public/lm/lmromanslant8-regular.otf'
p1234
aS'/usr/share/fonts/truetype/liberation/LiberationSerif-Bold.ttf'
p1235
aS'/usr/share/fonts/truetype/kacst-one/KacstOne-Bold.ttf'
p1236
aS'/usr/share/fonts/truetype/dejavu/DejaVuSansMono-Oblique.ttf'
p1237
aS'/usr/share/texmf/fonts/opentype/public/lm-math/latinmodernmath-regular.otf'
p1238
aS'/usr/share/fonts/truetype/nanum/NanumMyeongjoBold.ttf'
p1239
aS'/usr/share/fonts/truetype/ttf-dejavu/DejaVuSansMono-Bold.ttf'
p1240
aS'/usr/share/texmf/fonts/opentype/public/lm/lmmonocaps10-oblique.otf'
p1241
aS'/usr/share/texmf/fonts/opentype/public/lm/lmroman12-bold.otf'
p1242
aS'/usr/share/fonts/truetype/lao/Phetsarath_OT.ttf'
p1243
aS'/usr/share/fonts/truetype/dejavu/DejaVuSerifCondensed.ttf'
p1244
aS'/usr/share/fonts/truetype/tlwg/Umpush-Oblique.ttf'
p1245
aS'/usr/share/fonts/truetype/ttf-indic-fonts-core/utkal.ttf'
p1246
aS'/usr/share/fonts/truetype/kacst/KacstQurn.ttf'
p1247
aS'/usr/share/fonts/truetype/ttf-indic-fonts-core/MuktiNarrow.ttf'
p1248
aS'/usr/share/texmf/fonts/opentype/public/lm/lmroman6-bold.otf'
p1249
aS'/usr/share/fonts/truetype/takao-gothic/TakaoPGothic.ttf'
p1250
aS'/usr/share/fonts/truetype/ttf-dejavu/DejaVuSerif-BoldItalic.ttf'
p1251
aS'/usr/share/texmf/fonts/opentype/public/lm/lmroman17-regular.otf'
p1252
aS'/usr/share/fonts/truetype/kacst/mry_KacstQurn.ttf'
p1253
aS'/usr/share/fonts/truetype/ttf-indic-fonts-core/Kedage-b.ttf'
p1254
aS'/usr/share/fonts/truetype/ttf-dejavu/DejaVuSerif-Bold.ttf'
p1255
aS'/usr/share/fonts/truetype/ubuntu-font-family/UbuntuMono-R.ttf'
p1256
aS'/usr/share/fonts/truetype/tlwg/Purisa-BoldOblique.ttf'
p1257
aS'/usr/share/texmf/fonts/opentype/public/lm/lmmonoprop10-regular.otf'
p1258
aS'/usr/share/texmf/fonts/opentype/public/lm/lmmono12-regular.otf'
p1259
aS'/usr/share/fonts/truetype/tlwg/Norasi-Bold.ttf'
p1260
aS'/usr/share/fonts/truetype/tlwg/Norasi-BoldItalic.ttf'
p1261
aS'/usr/share/texmf/fonts/opentype/public/lm/lmroman5-regular.otf'
p1262
aS'/usr/share/texmf/fonts/opentype/public/lm/lmromanslant12-regular.otf'
p1263
aS'/usr/share/fonts/truetype/tlwg/Umpush-Bold.ttf'
p1264
aS'/usr/share/fonts/truetype/liberation/LiberationSans-BoldItalic.ttf'
p1265
aS'/usr/share/fonts/truetype/ttf-dejavu/DejaVuSansCondensed-Bold.ttf'
p1266
aS'/usr/share/fonts/truetype/tlwg/Kinnari-BoldOblique.ttf'
p1267
aS'/usr/share/texmf/fonts/opentype/public/lm/lmromandemi10-oblique.otf'
p1268
aS'/usr/share/fonts/truetype/freefont/FreeMono.ttf'
p1269
aS'/usr/share/fonts/truetype/ttf-indic-fonts-core/Malige-n.ttf'
p1270
aS'/usr/share/fonts/truetype/kacst/KacstNaskh.ttf'
p1271
aS'/usr/share/fonts/truetype/ttf-indic-fonts-core/Rekha.ttf'
p1272
aS'/usr/share/fonts/truetype/liberation/LiberationSansNarrow-BoldItalic.ttf'
p1273
aS'/usr/share/fonts/truetype/tlwg/Norasi-BoldOblique.ttf'
p1274
aS'/usr/share/texmf/fonts/opentype/public/lm/lmmono10-italic.otf'
p1275
aS'/usr/share/fonts/truetype/ttf-dejavu/DejaVuSerifCondensed-BoldItalic.ttf'
p1276
aS'/usr/share/fonts/truetype/tlwg/Sawasdee.ttf'
p1277
aS'/usr/share/fonts/truetype/kacst-one/KacstOne.ttf'
p1278
aS'/usr/share/fonts/truetype/dejavu/DejaVuSansMono-BoldOblique.ttf'
p1279
aS'/usr/share/fonts/truetype/freefont/FreeSansBold.ttf'
p1280
aS'/usr/share/texmf/fonts/opentype/public/lm/lmmonoltcond10-regular.otf'
p1281
aS'/usr/share/texmf/fonts/opentype/public/lm/lmromandemi10-regular.otf'
p1282
aS'/usr/share/texmf/fonts/opentype/public/lm/lmsansquot8-bold.otf'
p1283
aS'/usr/share/fonts/truetype/ttf-indic-fonts-core/lohit_bn.ttf'
p1284
aS'/usr/share/fonts/truetype/ttf-dejavu/DejaVuSans.ttf'
p1285
aS'/usr/share/fonts/truetype/ubuntu-font-family/UbuntuMono-RI.ttf'
p1286
aS'/usr/share/texmf/fonts/opentype/public/lm/lmromanslant9-regular.otf'
p1287
aS'/usr/share/texmf/fonts/opentype/public/lm/lmmono8-regular.otf'
p1288
aS'/usr/share/fonts/truetype/tlwg/Purisa-Bold.ttf'
p1289
aS'/usr/share/texmf/fonts/opentype/public/lm/lmsansquot8-boldoblique.otf'
p1290
aS'/usr/share/fonts/truetype/freefont/FreeMonoBold.ttf'
p1291
aS'/usr/share/fonts/truetype/ttf-dejavu/DejaVuSans-Bold.ttf'
p1292
aS'/usr/share/fonts/truetype/tlwg/TlwgTypist-Bold.ttf'
p1293
aS'/usr/share/texmf/fonts/opentype/public/lm/lmmonoprop10-oblique.otf'
p1294
aS'/usr/share/texmf/fonts/opentype/public/lm/lmroman9-regular.otf'
p1295
aS'/usr/share/texmf/fonts/opentype/public/lm/lmsansdemicond10-oblique.otf'
p1296
aS'/usr/share/fonts/truetype/kacst/KacstBook.ttf'
p1297
aS'/usr/share/fonts/truetype/dejavu/DejaVuSans-ExtraLight.ttf'
p1298
aS'/usr/share/fonts/truetype/kacst/KacstFarsi.ttf'
p1299
aS'/usr/share/fonts/truetype/kacst/KacstPoster.ttf'
p1300
aS'/usr/share/fonts/truetype/tlwg/Purisa.ttf'
p1301
aS'/usr/share/fonts/truetype/nanum/NanumMyeongjo.ttf'
p1302
aS'/usr/share/fonts/truetype/ubuntu-font-family/Ubuntu-LI.ttf'
p1303
aS'/usr/share/texmf/fonts/opentype/public/lm/lmromanslant17-regular.otf'
p1304
aS'/usr/share/texmf/fonts/opentype/public/lm/lmsansdemicond10-regular.otf'
p1305
aS'/usr/share/fonts/truetype/ubuntu-font-family/Ubuntu-BI.ttf'
p1306
aS'/usr/share/fonts/truetype/ttf-indic-fonts-core/Pothana2000.ttf'
p1307
aS'/usr/share/texmf/fonts/opentype/public/lm/lmmonoproplt10-oblique.otf'
p1308
aS'/usr/share/fonts/truetype/nanum/NanumGothicBold.ttf'
p1309
aS'/usr/share/fonts/truetype/liberation/LiberationMono-BoldItalic.ttf'
p1310
aS'/usr/share/texmf/fonts/opentype/public/lm/lmmonoltcond10-oblique.otf'
p1311
aS'/usr/share/texmf/fonts/opentype/public/lm/lmroman5-bold.otf'
p1312
aS'/usr/share/fonts/truetype/padauk/Padauk-bold.ttf'
p1313
aS'/usr/share/fonts/truetype/tlwg/Loma-BoldOblique.ttf'
p1314
aS'/usr/share/fonts/truetype/dejavu/DejaVuSansCondensed.ttf'
p1315
aS'/usr/share/fonts/truetype/dejavu/DejaVuSansMono.ttf'
p1316
aS'/usr/share/fonts/truetype/tlwg/TlwgTypewriter.ttf'
p1317
aS'/usr/share/fonts/truetype/tlwg/Kinnari-BoldItalic.ttf'
p1318
aS'/usr/share/fonts/truetype/ubuntu-font-family/UbuntuMono-B.ttf'
p1319
aS'/usr/share/fonts/truetype/dejavu/DejaVuSansCondensed-BoldOblique.ttf'
p1320
aS'/usr/share/texmf/fonts/opentype/public/lm/lmroman7-bold.otf'
p1321
aS'/usr/share/fonts/truetype/freefont/FreeSerifBold.ttf'
p1322
aS'/usr/share/fonts/truetype/openoffice/opens___.ttf'
p1323
aS'/usr/share/texmf/fonts/opentype/public/lm/lmsans17-regular.otf'
p1324
aS'/usr/share/fonts/truetype/ttf-indic-fonts-core/gargi.ttf'
p1325
aS'/usr/share/texmf/fonts/opentype/public/lm/lmroman8-regular.otf'
p1326
aS'/usr/share/fonts/truetype/tlwg/Norasi-Italic.ttf'
p1327
aS'/usr/share/texmf/fonts/opentype/public/lm/lmmonolt10-bold.otf'
p1328
aS'/usr/share/fonts/truetype/ttf-khmeros-core/KhmerOSsys.ttf'
p1329
aS'/usr/share/fonts/truetype/kacst/KacstDecorative.ttf'
p1330
aS'/usr/share/fonts/truetype/tlwg/TlwgTypist-Oblique.ttf'
p1331
aS'/usr/share/fonts/truetype/tlwg/Norasi.ttf'
p1332
aS'/usr/share/fonts/truetype/ttf-dejavu/DejaVuSerifCondensed-Italic.ttf'
p1333
aS'/usr/share/texmf/fonts/opentype/public/lm/lmroman12-italic.otf'
p1334
aS'/usr/share/fonts/truetype/ttf-indic-fonts-core/MuktiNarrowBold.ttf'
p1335
aS'/usr/share/texmf/fonts/opentype/public/lm/lmsans8-oblique.otf'
p1336
aS'/usr/share/fonts/truetype/liberation/LiberationSans-Italic.ttf'
p1337
aS'/usr/share/fonts/truetype/tlwg/Umpush-BoldOblique.ttf'
p1338
aS'/usr/share/fonts/truetype/ubuntu-font-family/Ubuntu-B.ttf'
p1339
aS'/usr/share/fonts/truetype/freefont/FreeSansBoldOblique.ttf'
p1340
aS'/usr/share/texmf/fonts/opentype/public/lm/lmsans12-oblique.otf'
p1341
aS'/usr/share/texmf/fonts/opentype/public/lm/lmsans12-regular.otf'
p1342
aS'/usr/share/fonts/truetype/tlwg/TlwgTypo-Bold.ttf'
p1343
aS'/usr/share/texmf/fonts/opentype/public/lm/lmroman9-bold.otf'
p1344
aS'/usr/share/fonts/truetype/ubuntu-font-family/Ubuntu-RI.ttf'
p1345
aS'/usr/share/fonts/truetype/tlwg/Waree-Oblique.ttf'
p1346
aS'/usr/share/fonts/truetype/liberation/LiberationSerif-Italic.ttf'
p1347
aS'/usr/share/fonts/truetype/tlwg/TlwgTypewriter-Bold.ttf'
p1348
aS'/usr/share/fonts/truetype/tlwg/Waree-BoldOblique.ttf'
p1349
aS'/usr/share/fonts/truetype/freefont/FreeSans.ttf'
p1350
aS'/usr/share/fonts/truetype/tlwg/Kinnari-Oblique.ttf'
p1351
aS'/usr/share/fonts/truetype/tlwg/Waree-Bold.ttf'
p1352
aS'/usr/share/fonts/truetype/freefont/FreeSerifBoldItalic.ttf'
p1353
aS'/usr/share/fonts/truetype/dejavu/DejaVuSerifCondensed-Italic.ttf'
p1354
aS'/usr/share/texmf/fonts/opentype/public/lm/lmroman9-italic.otf'
p1355
aS'/usr/share/fonts/truetype/kacst/KacstArt.ttf'
p1356
aS'/usr/share/fonts/truetype/tlwg/TlwgTypo-BoldOblique.ttf'
p1357
aS'/usr/share/fonts/truetype/ttf-indic-fonts-core/Vemana.ttf'
p1358
aS'/usr/share/fonts/truetype/tlwg/Umpush-Light.ttf'
p1359
aS'/usr/share/fonts/truetype/dejavu/DejaVuSans.ttf'
p1360
aS'/usr/share/texmf/fonts/opentype/public/lm/lmromandunh10-regular.otf'
p1361
aS'/usr/share/fonts/truetype/ttf-indic-fonts-core/Kedage-n.ttf'
p1362
aS'/usr/share/fonts/truetype/ttf-indic-fonts-core/lohit_ta.ttf'
p1363
aS'/usr/share/fonts/truetype/liberation/LiberationSans-Regular.ttf'
p1364
aS'/usr/share/fonts/truetype/ubuntu-font-family/Ubuntu-C.ttf'
p1365
aS'/usr/share/fonts/truetype/tlwg/Kinnari.ttf'
p1366
aS'/usr/share/texmf/fonts/opentype/public/lm/lmsans8-regular.otf'
p1367
aS'/usr/share/texmf/fonts/opentype/public/lm/lmmonoproplt10-bold.otf'
p1368
aS'/usr/share/fonts/truetype/ubuntu-font-family/UbuntuMono-BI.ttf'
p1369
aS'/usr/share/fonts/truetype/ttf-dejavu/DejaVuSerifCondensed-Bold.ttf'
p1370
aS'/usr/share/texmf/fonts/opentype/public/lm/lmmonolt10-boldoblique.otf'
p1371
aS'/usr/share/texmf/fonts/opentype/public/lm/lmroman8-bold.otf'
p1372
aS'/usr/share/fonts/truetype/ttf-dejavu/DejaVuSansMono-BoldOblique.ttf'
p1373
aS'/usr/share/fonts/truetype/tlwg/Kinnari-Bold.ttf'
p1374
aS'/usr/share/fonts/truetype/freefont/FreeMonoOblique.ttf'
p1375
aS'/usr/share/texmf/fonts/opentype/public/lm/lmromanunsl10-regular.otf'
p1376
aS'/usr/share/fonts/truetype/tlwg/TlwgMono.ttf'
p1377
aS'/usr/share/fonts/truetype/tlwg/TlwgTypewriter-BoldOblique.ttf'
p1378
aS'/usr/share/fonts/truetype/ttf-dejavu/DejaVuSansCondensed-Oblique.ttf'
p1379
aS'/usr/share/texmf/fonts/opentype/public/lm/lmromancaps10-regular.otf'
p1380
aS'/usr/share/fonts/truetype/dejavu/DejaVuSerif-Bold.ttf'
p1381
aS'/usr/share/fonts/truetype/kacst/KacstTitleL.ttf'
p1382
aS'/usr/share/fonts/truetype/ttf-dejavu/DejaVuSansMono-Oblique.ttf'
p1383
aS'/usr/share/texmf/fonts/opentype/public/lm/lmsans9-regular.otf'
p1384
aS'/usr/share/fonts/truetype/tlwg/TlwgTypo-Oblique.ttf'
p1385
aS'/usr/share/texmf/fonts/opentype/public/lm/lmromancaps10-oblique.otf'
p1386
aS'/usr/share/fonts/truetype/tlwg/TlwgMono-BoldOblique.ttf'
p1387
aS'/usr/share/texmf/fonts/opentype/public/lm/lmromanslant10-regular.otf'
p1388
aS'/usr/share/fonts/truetype/ubuntu-font-family/Ubuntu-MI.ttf'
p1389
aS'/usr/share/fonts/truetype/tlwg/Purisa-Oblique.ttf'
p1390
aS'/usr/share/texmf/fonts/opentype/public/lm/lmsansquot8-oblique.otf'
p1391
aS'/usr/share/fonts/truetype/tlwg/Kinnari-Italic.ttf'
p1392
aS'/usr/share/fonts/truetype/tlwg/Sawasdee-BoldOblique.ttf'
p1393
aS'/usr/share/fonts/truetype/tlwg/Sawasdee-Bold.ttf'
p1394
aS'/usr/share/fonts/truetype/padauk/Padauk-book.ttf'
p1395
aS'/usr/share/fonts/truetype/dejavu/DejaVuSansCondensed-Oblique.ttf'
p1396
aS'/usr/share/fonts/truetype/kacst/KacstDigital.ttf'
p1397
aS'/usr/share/fonts/truetype/ttf-dejavu/DejaVuSerifCondensed.ttf'
p1398
aS'/usr/share/fonts/truetype/ttf-punjabi-fonts/Saab.ttf'
p1399
aS'/usr/share/fonts/truetype/kacst/KacstOffice.ttf'
p1400
aS'/usr/share/fonts/truetype/abyssinica/AbyssinicaSIL-R.ttf'
p1401
aS'/usr/share/fonts/truetype/ttf-indic-fonts-core/lohit_gu.ttf'
p1402
aS'/usr/share/fonts/truetype/tlwg/Sawasdee-Oblique.ttf'
p1403
aS'/usr/share/texmf/fonts/opentype/public/lm/lmroman10-bolditalic.otf'
p1404
aS'/usr/share/texmf/fonts/opentype/public/lm/lmsans10-boldoblique.otf'
p1405
aS'/usr/share/fonts/truetype/ttf-khmeros-core/KhmerOS.ttf'
p1406
aS'/usr/share/fonts/truetype/padauk/Padauk.ttf'
p1407
aS'/usr/share/texmf/fonts/opentype/public/lm/lmmonoslant10-regular.otf'
p1408
aS'/usr/share/fonts/truetype/tlwg/Loma.ttf'
p1409
aS'/usr/share/fonts/truetype/tlwg/Garuda-Oblique.ttf'
p1410
aS'/usr/share/texmf/fonts/opentype/public/lm/lmmonoproplt10-regular.otf'
p1411
aS'/usr/share/fonts/truetype/tlwg/Loma-Bold.ttf'
p1412
aS'/usr/share/texmf/fonts/opentype/public/lm/lmsans17-oblique.otf'
p1413
aS'/usr/share/fonts/truetype/tlwg/Garuda-BoldOblique.ttf'
p1414
aS'/usr/share/fonts/truetype/kacst/KacstLetter.ttf'
p1415
aS'/usr/share/fonts/truetype/dejavu/DejaVuSansMono-Bold.ttf'
p1416
aS'/usr/share/fonts/truetype/kacst/KacstPen.ttf'
p1417
aS'/usr/share/fonts/truetype/ttf-dejavu/DejaVuSans-ExtraLight.ttf'
p1418
aS'/usr/share/fonts/truetype/dejavu/DejaVuSansCondensed-Bold.ttf'
p1419
aS'/usr/share/fonts/truetype/ttf-dejavu/DejaVuSerif-Italic.ttf'
p1420
aS'/usr/share/texmf/fonts/opentype/public/lm/lmmono9-regular.otf'
p1421
aS'/usr/share/texmf/fonts/opentype/public/lm/lmsans9-oblique.otf'
p1422
aS'/usr/share/texmf/fonts/opentype/public/lm/lmromanslant10-bold.otf'
p1423
aS'/usr/share/fonts/truetype/freefont/FreeSerifItalic.ttf'
p1424
aS'/usr/share/fonts/truetype/ubuntu-font-family/Ubuntu-L.ttf'
p1425
aS'/usr/share/texmf/fonts/opentype/public/lm/lmroman10-bold.otf'
p1426
aS'/usr/share/fonts/truetype/tlwg/Waree.ttf'
p1427
aS'/usr/share/fonts/truetype/tlwg/TlwgTypewriter-Oblique.ttf'
p1428
aS'/usr/share/fonts/truetype/liberation/LiberationSansNarrow-Italic.ttf'
p1429
aS'/usr/share/texmf/fonts/opentype/public/lm/lmmonoproplt10-boldoblique.otf'
p1430
asS'_FontManager__default_weight'
p1431
g13
sS'_version'
p1432
I101
sS'ttf_lookup_cache'
p1433
(dp1434
sS'default_size'
p1435
NsS'defaultFont'
p1436
(dp1437
g1128
S'/usr/local/lib/python2.7/dist-packages/matplotlib/mpl-data/fonts/afm/cmtt10.afm'
p1438
sg1130
g1162
ssS'afmfiles'
p1439
(lp1440
g1438
aS'/usr/local/lib/python2.7/dist-packages/matplotlib/mpl-data/fonts/afm/pncbi8a.afm'
p1441
aS'/usr/local/lib/python2.7/dist-packages/matplotlib/mpl-data/fonts/pdfcorefonts/Helvetica-BoldOblique.afm'
p1442
aS'/usr/local/lib/python2.7/dist-packages/matplotlib/mpl-data/fonts/pdfcorefonts/Times-BoldItalic.afm'
p1443
aS'/usr/local/lib/python2.7/dist-packages/matplotlib/mpl-data/fonts/afm/ptmri8a.afm'
p1444
aS'/usr/local/lib/python2.7/dist-packages/matplotlib/mpl-data/fonts/afm/pplbi8a.afm'
p1445
aS'/usr/local/lib/python2.7/dist-packages/matplotlib/mpl-data/fonts/afm/phvb8an.afm'
p1446
aS'/usr/local/lib/python2.7/dist-packages/matplotlib/mpl-data/fonts/afm/phvlo8a.afm'
p1447
aS'/usr/local/lib/python2.7/dist-packages/matplotlib/mpl-data/fonts/afm/pzcmi8a.afm'
p1448
aS'/usr/local/lib/python2.7/dist-packages/matplotlib/mpl-data/fonts/afm/putri8a.afm'
p1449
aS'/usr/local/lib/python2.7/dist-packages/matplotlib/mpl-data/fonts/afm/phvro8a.afm'
p1450
aS'/usr/local/lib/python2.7/dist-packages/matplotlib/mpl-data/fonts/pdfcorefonts/Times-Roman.afm'
p1451
aS'/usr/local/lib/python2.7/dist-packages/matplotlib/mpl-data/fonts/afm/pcrr8a.afm'
p1452
aS'/usr/local/lib/python2.7/dist-packages/matplotlib/mpl-data/fonts/afm/ptmb8a.afm'
p1453
aS'/usr/local/lib/python2.7/dist-packages/matplotlib/mpl-data/fonts/afm/pcrro8a.afm'
p1454
aS'/usr/local/lib/python2.7/dist-packages/matplotlib/mpl-data/fonts/afm/pbkdi8a.afm'
p1455
aS'/usr/local/lib/python2.7/dist-packages/matplotlib/mpl-data/fonts/afm/cmsy10.afm'
p1456
aS'/usr/local/lib/python2.7/dist-packages/matplotlib/mpl-data/fonts/afm/pncr8a.afm'
p1457
aS'/usr/local/lib/python2.7/dist-packages/matplotlib/mpl-data/fonts/afm/pagd8a.afm'
p1458
aS'/usr/local/lib/python2.7/dist-packages/matplotlib/mpl-data/fonts/pdfcorefonts/Courier-Oblique.afm'
p1459
aS'/usr/local/lib/python2.7/dist-packages/matplotlib/mpl-data/fonts/pdfcorefonts/Courier-BoldOblique.afm'
p1460
aS'/usr/local/lib/python2.7/dist-packages/matplotlib/mpl-data/fonts/afm/phvl8a.afm'
p1461
aS'/usr/local/lib/python2.7/dist-packages/matplotlib/mpl-data/fonts/afm/pbkd8a.afm'
p1462
aS'/usr/local/lib/python2.7/dist-packages/matplotlib/mpl-data/fonts/afm/pcrbo8a.afm'
p1463
aS'/usr/local/lib/python2.7/dist-packages/matplotlib/mpl-data/fonts/pdfcorefonts/Helvetica-Oblique.afm'
p1464
aS'/usr/local/lib/python2.7/dist-packages/matplotlib/mpl-data/fonts/afm/cmmi10.afm'
p1465
aS'/usr/local/lib/python2.7/dist-packages/matplotlib/mpl-data/fonts/afm/ptmbi8a.afm'
p1466
aS'/usr/local/lib/python2.7/dist-packages/matplotlib/mpl-data/fonts/afm/pncb8a.afm'
p1467
aS'/usr/local/lib/python2.7/dist-packages/matplotlib/mpl-data/fonts/afm/putb8a.afm'
p1468
aS'/usr/local/lib/python2.7/dist-packages/matplotlib/mpl-data/fonts/afm/pagdo8a.afm'
p1469
aS'/usr/local/lib/python2.7/dist-packages/matplotlib/mpl-data/fonts/afm/phvr8an.afm'
p1470
aS'/usr/local/lib/python2.7/dist-packages/matplotlib/mpl-data/fonts/afm/phvro8an.afm'
p1471
aS'/usr/local/lib/python2.7/dist-packages/matplotlib/mpl-data/fonts/pdfcorefonts/ZapfDingbats.afm'
p1472
aS'/usr/local/lib/python2.7/dist-packages/matplotlib/mpl-data/fonts/afm/phvb8a.afm'
p1473
aS'/usr/local/lib/python2.7/dist-packages/matplotlib/mpl-data/fonts/afm/pzdr.afm'
p1474
aS'/usr/local/lib/python2.7/dist-packages/matplotlib/mpl-data/fonts/afm/phvbo8a.afm'
p1475
aS'/usr/local/lib/python2.7/dist-packages/matplotlib/mpl-data/fonts/pdfcorefonts/Courier-Bold.afm'
p1476
aS'/usr/local/lib/python2.7/dist-packages/matplotlib/mpl-data/fonts/afm/pcrb8a.afm'
p1477
aS'/usr/local/lib/python2.7/dist-packages/matplotlib/mpl-data/fonts/afm/pbkli8a.afm'
p1478
aS'/usr/local/lib/python2.7/dist-packages/matplotlib/mpl-data/fonts/pdfcorefonts/Courier.afm'
p1479
aS'/usr/local/lib/python2.7/dist-packages/matplotlib/mpl-data/fonts/afm/phvbo8an.afm'
p1480
aS'/usr/local/lib/python2.7/dist-packages/matplotlib/mpl-data/fonts/afm/pagk8a.afm'
p1481
aS'/usr/local/lib/python2.7/dist-packages/matplotlib/mpl-data/fonts/afm/cmex10.afm'
p1482
aS'/usr/local/lib/python2.7/dist-packages/matplotlib/mpl-data/fonts/pdfcorefonts/Helvetica.afm'
p1483
aS'/usr/local/lib/python2.7/dist-packages/matplotlib/mpl-data/fonts/afm/pplri8a.afm'
p1484
aS'/usr/local/lib/python2.7/dist-packages/matplotlib/mpl-data/fonts/afm/pagko8a.afm'
p1485
aS'/usr/local/lib/python2.7/dist-packages/matplotlib/mpl-data/fonts/afm/pplb8a.afm'
p1486
aS'/usr/local/lib/python2.7/dist-packages/matplotlib/mpl-data/fonts/afm/putbi8a.afm'
p1487
aS'/usr/local/lib/python2.7/dist-packages/matplotlib/mpl-data/fonts/afm/psyr.afm'
p1488
aS'/usr/local/lib/python2.7/dist-packages/matplotlib/mpl-data/fonts/pdfcorefonts/Times-Bold.afm'
p1489
aS'/usr/local/lib/python2.7/dist-packages/matplotlib/mpl-data/fonts/afm/cmr10.afm'
p1490
aS'/usr/local/lib/python2.7/dist-packages/matplotlib/mpl-data/fonts/afm/pplr8a.afm'
p1491
aS'/usr/local/lib/python2.7/dist-packages/matplotlib/mpl-data/fonts/afm/ptmr8a.afm'
p1492
aS'/usr/local/lib/python2.7/dist-packages/matplotlib/mpl-data/fonts/afm/phvr8a.afm'
p1493
aS'/usr/local/lib/python2.7/dist-packages/matplotlib/mpl-data/fonts/afm/pncri8a.afm'
p1494
aS'/usr/local/lib/python2.7/dist-packages/matplotlib/mpl-data/fonts/pdfcorefonts/Symbol.afm'
p1495
aS'/usr/local/lib/python2.7/dist-packages/matplotlib/mpl-data/fonts/afm/putr8a.afm'
p1496
aS'/usr/local/lib/python2.7/dist-packages/matplotlib/mpl-data/fonts/pdfcorefonts/Helvetica-Bold.afm'
p1497
aS'/usr/local/lib/python2.7/dist-packages/matplotlib/mpl-data/fonts/afm/pbkl8a.afm'
p1498
aS'/usr/local/lib/python2.7/dist-packages/matplotlib/mpl-data/fonts/pdfcorefonts/Times-Italic.afm'
p1499
aS'/usr/share/fonts/type1/gsfonts/n021024l.afm'
p1500
aS'/usr/share/fonts/type1/gsfonts/n019024l.afm'
p1501
aS'/usr/share/fonts/type1/gsfonts/n021004l.afm'
p1502
aS'/usr/share/fonts/X11/Type1/lmtto10.afm'
p1503
aS'/usr/share/fonts/X11/Type1/lmtt10.afm'
p1504
aS'/usr/share/fonts/X11/Type1/lmssbx10.afm'
p1505
aS'/usr/share/fonts/type1/gsfonts/s050000l.afm'
p1506
aS'/usr/share/fonts/type1/gsfonts/d050000l.afm'
p1507
aS'/usr/share/fonts/type1/gsfonts/p052004l.afm'
p1508
aS'/usr/share/fonts/X11/Type1/lmvtko10.afm'
p1509
aS'/usr/share/fonts/X11/Type1/lmssqo8.afm'
p1510
aS'/usr/share/fonts/type1/gsfonts/b018012l.afm'
p1511
aS'/usr/share/fonts/type1/gsfonts/n022003l.afm'
p1512
aS'/usr/share/fonts/X11/Type1/lmss10.afm'
p1513
aS'/usr/share/fonts/X11/Type1/c0583bt_.afm'
p1514
aS'/usr/share/fonts/type1/gsfonts/n019063l.afm'
p1515
aS'/usr/share/fonts/type1/gsfonts/a010033l.afm'
p1516
aS'/usr/share/fonts/type1/gsfonts/n019044l.afm'
p1517
aS'/usr/share/fonts/type1/gsfonts/z003034l.afm'
p1518
aS'/usr/share/fonts/X11/Type1/lmtcsc10.afm'
p1519
aS'/usr/share/fonts/type1/gsfonts/n022024l.afm'
p1520
aS'/usr/share/fonts/X11/Type1/lmbxi10.afm'
p1521
aS'/usr/share/fonts/type1/gsfonts/n019043l.afm'
p1522
aS'/usr/share/fonts/X11/Type1/lmcsco10.afm'
p1523
aS'/usr/share/fonts/X11/Type1/Symbol.afm'
p1524
aS'/usr/share/fonts/X11/Type1/c0633bt_.afm'
p1525
aS'/usr/share/fonts/X11/Type1/lmtk10.afm'
p1526
aS'/usr/share/fonts/X11/Type1/lmdunh10.afm'
p1527
aS'/usr/share/fonts/X11/Type1/c0649bt_.afm'
p1528
aS'/usr/share/fonts/X11/Type1/lmbx10.afm'
p1529
aS'/usr/share/fonts/type1/gsfonts/n019064l.afm'
p1530
aS'/usr/share/fonts/type1/gsfonts/n019003l.afm'
p1531
aS'/usr/share/fonts/type1/gsfonts/p052024l.afm'
p1532
aS'/usr/share/fonts/type1/gsfonts/b018035l.afm'
p1533
aS'/usr/share/fonts/X11/Type1/lmvtt10.afm'
p1534
aS'/usr/share/fonts/X11/Type1/lmvtk10.afm'
p1535
aS'/usr/share/fonts/X11/Type1/lmduno10.afm'
p1536
aS'/usr/share/fonts/type1/gsfonts/a010013l.afm'
p1537
aS'/usr/share/fonts/X11/Type1/c0582bt_.afm'
p1538
aS'/usr/share/fonts/X11/Type1/lmssdo10.afm'
p1539
aS'/usr/share/fonts/X11/Type1/c0648bt_.afm'
p1540
aS'/usr/share/fonts/type1/gsfonts/n022004l.afm'
p1541
aS'/usr/share/fonts/X11/Type1/lmssq8.afm'
p1542
aS'/usr/share/fonts/type1/gsfonts/p052023l.afm'
p1543
aS'/usr/share/fonts/type1/mathml/Symbol.afm'
p1544
aS'/usr/share/fonts/X11/Type1/lmtti10.afm'
p1545
aS'/usr/share/fonts/X11/Type1/lmro10.afm'
p1546
aS'/usr/share/fonts/type1/gsfonts/a010035l.afm'
p1547
aS'/usr/share/fonts/type1/gsfonts/c059033l.afm'
p1548
aS'/usr/share/fonts/X11/Type1/lmsso10.afm'
p1549
aS'/usr/share/fonts/type1/gsfonts/n019023l.afm'
p1550
aS'/usr/share/fonts/X11/Type1/lmvtl10.afm'
p1551
aS'/usr/share/fonts/X11/Type1/lmtko10.afm'
p1552
aS'/usr/share/fonts/X11/Type1/c0611bt_.afm'
p1553
aS'/usr/share/fonts/X11/Type1/lmbo10.afm'
p1554
aS'/usr/share/fonts/type1/gsfonts/c059036l.afm'
p1555
aS'/usr/share/fonts/X11/Type1/lmri10.afm'
p1556
aS'/usr/share/fonts/type1/gsfonts/n019004l.afm'
p1557
aS'/usr/share/fonts/X11/Type1/lmssqbo8.afm'
p1558
aS'/usr/share/fonts/type1/gsfonts/p052003l.afm'
p1559
aS'/usr/share/fonts/X11/Type1/lmr10.afm'
p1560
aS'/usr/share/fonts/type1/gsfonts/a010015l.afm'
p1561
aS'/usr/share/fonts/X11/Type1/lmssqbx8.afm'
p1562
aS'/usr/share/fonts/X11/Type1/lmvtto10.afm'
p1563
aS'/usr/share/fonts/X11/Type1/lmssdc10.afm'
p1564
aS'/usr/share/fonts/type1/gsfonts/b018032l.afm'
p1565
aS'/usr/share/fonts/X11/Type1/lmtl10.afm'
p1566
aS'/usr/share/fonts/type1/gsfonts/c059016l.afm'
p1567
aS'/usr/share/fonts/X11/Type1/lmbxo10.afm'
p1568
aS'/usr/share/fonts/type1/gsfonts/n022023l.afm'
p1569
aS'/usr/share/fonts/X11/Type1/lmtlco10.afm'
p1570
aS'/usr/share/fonts/X11/Type1/lmtlc10.afm'
p1571
aS'/usr/share/fonts/type1/gsfonts/n021023l.afm'
p1572
aS'/usr/share/fonts/X11/Type1/lmcsc10.afm'
p1573
aS'/usr/share/fonts/X11/Type1/lmtlo10.afm'
p1574
aS'/usr/share/fonts/X11/Type1/lmssbo10.afm'
p1575
aS'/usr/share/fonts/X11/Type1/c0632bt_.afm'
p1576
aS'/usr/share/fonts/X11/Type1/lmtcso10.afm'
p1577
aS'/usr/share/fonts/type1/gsfonts/n021003l.afm'
p1578
aS'/usr/share/fonts/type1/gsfonts/c059013l.afm'
p1579
aS'/usr/share/fonts/X11/Type1/lmu10.afm'
p1580
aS'/usr/share/fonts/X11/Type1/lmb10.afm'
p1581
aS'/usr/share/fonts/X11/Type1/lmvtlo10.afm'
p1582
aS'/usr/share/fonts/type1/gsfonts/b018015l.afm'
p1583
aS'/usr/share/fonts/X11/Type1/c0419bt_.afm'
p1584
asS'afmlist'
p1585
(lp1586
g7
(g8
g9
NtRp1587
(dp1588
g12
g13
sg14
S'Computer Modern'
p1589
sg16
I500
sg17
g13
sg18
g13
sg19
g1438
sg21
g22
sbag7
(g8
g9
NtRp1590
(dp1591
g12
g54
sg14
S'New Century Schoolbook'
p1592
sg16
I700
sg17
g13
sg18
g13
sg19
g1441
sg21
g22
sbag7
(g8
g9
NtRp1593
(dp1594
g12
g54
sg14
S'Helvetica'
p1595
sg16
I700
sg17
g13
sg18
g13
sg19
g1442
sg21
g22
sbag7
(g8
g9
NtRp1596
(dp1597
g12
g54
sg14
S'Times'
p1598
sg16
I700
sg17
g13
sg18
g13
sg19
g1443
sg21
g22
sbag7
(g8
g9
NtRp1599
(dp1600
g12
g54
sg14
S'Times'
p1601
sg16
I500
sg17
g13
sg18
g13
sg19
g1444
sg21
g22
sbag7
(g8
g9
NtRp1602
(dp1603
g12
g54
sg14
S'Palatino'
p1604
sg16
I700
sg17
g13
sg18
g13
sg19
g1445
sg21
g22
sbag7
(g8
g9
NtRp1605
(dp1606
g12
g13
sg14
S'Helvetica'
p1607
sg16
I700
sg17
g192
sg18
g13
sg19
g1446
sg21
g22
sbag7
(g8
g9
NtRp1608
(dp1609
g12
g54
sg14
S'Helvetica'
p1610
sg16
I200
sg17
g13
sg18
g13
sg19
g1447
sg21
g22
sbag7
(g8
g9
NtRp1611
(dp1612
g12
g54
sg14
S'ITC Zapf Chancery'
p1613
sg16
I500
sg17
g13
sg18
g13
sg19
g1448
sg21
g22
sbag7
(g8
g9
NtRp1614
(dp1615
g12
g54
sg14
S'Utopia'
p1616
sg16
I400
sg17
g13
sg18
g13
sg19
g1449
sg21
g22
sbag7
(g8
g9
NtRp1617
(dp1618
g12
g54
sg14
S'Helvetica'
p1619
sg16
I500
sg17
g13
sg18
g13
sg19
g1450
sg21
g22
sbag7
(g8
g9
NtRp1620
(dp1621
g12
g13
sg14
S'Times'
p1622
sg16
I500
sg17
g13
sg18
g13
sg19
g1451
sg21
g22
sbag7
(g8
g9
NtRp1623
(dp1624
g12
g13
sg14
S'Courier'
p1625
sg16
I500
sg17
g13
sg18
g13
sg19
g1452
sg21
g22
sbag7
(g8
g9
NtRp1626
(dp1627
g12
g13
sg14
S'Times'
p1628
sg16
I700
sg17
g13
sg18
g13
sg19
g1453
sg21
g22
sbag7
(g8
g9
NtRp1629
(dp1630
g12
g54
sg14
S'Courier'
p1631
sg16
I500
sg17
g13
sg18
g13
sg19
g1454
sg21
g22
sbag7
(g8
g9
NtRp1632
(dp1633
g12
g54
sg14
S'ITC Bookman'
p1634
sg16
I600
sg17
g13
sg18
g13
sg19
g1455
sg21
g22
sbag7
(g8
g9
NtRp1635
(dp1636
g12
g54
sg14
S'Computer Modern'
p1637
sg16
I500
sg17
g13
sg18
g13
sg19
g1456
sg21
g22
sbag7
(g8
g9
NtRp1638
(dp1639
g12
g13
sg14
S'New Century Schoolbook'
p1640
sg16
I500
sg17
g13
sg18
g13
sg19
g1457
sg21
g22
sbag7
(g8
g9
NtRp1641
(dp1642
g12
g13
sg14
S'ITC Avant Garde Gothic'
p1643
sg16
I600
sg17
g13
sg18
g13
sg19
g1458
sg21
g22
sbag7
(g8
g9
NtRp1644
(dp1645
g12
g54
sg14
S'Courier'
p1646
sg16
I500
sg17
g13
sg18
g13
sg19
g1459
sg21
g22
sbag7
(g8
g9
NtRp1647
(dp1648
g12
g54
sg14
S'Courier'
p1649
sg16
I700
sg17
g13
sg18
g13
sg19
g1460
sg21
g22
sbag7
(g8
g9
NtRp1650
(dp1651
g12
g13
sg14
S'Helvetica'
p1652
sg16
I200
sg17
g13
sg18
g13
sg19
g1461
sg21
g22
sbag7
(g8
g9
NtRp1653
(dp1654
g12
g13
sg14
S'ITC Bookman'
p1655
sg16
I600
sg17
g13
sg18
g13
sg19
g1462
sg21
g22
sbag7
(g8
g9
NtRp1656
(dp1657
g12
g54
sg14
S'Courier'
p1658
sg16
I700
sg17
g13
sg18
g13
sg19
g1463
sg21
g22
sbag7
(g8
g9
NtRp1659
(dp1660
g12
g54
sg14
S'Helvetica'
p1661
sg16
I500
sg17
g13
sg18
g13
sg19
g1464
sg21
g22
sbag7
(g8
g9
NtRp1662
(dp1663
g12
g54
sg14
S'Computer Modern'
p1664
sg16
I500
sg17
g13
sg18
g13
sg19
g1465
sg21
g22
sbag7
(g8
g9
NtRp1665
(dp1666
g12
g54
sg14
S'Times'
p1667
sg16
I700
sg17
g13
sg18
g13
sg19
g1466
sg21
g22
sbag7
(g8
g9
NtRp1668
(dp1669
g12
g13
sg14
S'New Century Schoolbook'
p1670
sg16
I700
sg17
g13
sg18
g13
sg19
g1467
sg21
g22
sbag7
(g8
g9
NtRp1671
(dp1672
g12
g13
sg14
S'Utopia'
p1673
sg16
I700
sg17
g13
sg18
g13
sg19
g1468
sg21
g22
sbag7
(g8
g9
NtRp1674
(dp1675
g12
g54
sg14
S'ITC Avant Garde Gothic'
p1676
sg16
I600
sg17
g13
sg18
g13
sg19
g1469
sg21
g22
sbag7
(g8
g9
NtRp1677
(dp1678
g12
g13
sg14
S'Helvetica'
p1679
sg16
I500
sg17
g192
sg18
g13
sg19
g1470
sg21
g22
sbag7
(g8
g9
NtRp1680
(dp1681
g12
g54
sg14
S'Helvetica'
p1682
sg16
I500
sg17
g192
sg18
g13
sg19
g1471
sg21
g22
sbag7
(g8
g9
NtRp1683
(dp1684
g12
g13
sg14
S'ZapfDingbats'
p1685
sg16
I500
sg17
g13
sg18
g13
sg19
g1472
sg21
g22
sbag7
(g8
g9
NtRp1686
(dp1687
g12
g13
sg14
S'Helvetica'
p1688
sg16
I700
sg17
g13
sg18
g13
sg19
g1473
sg21
g22
sbag7
(g8
g9
NtRp1689
(dp1690
g12
g13
sg14
S'ITC Zapf Dingbats'
p1691
sg16
I500
sg17
g13
sg18
g13
sg19
g1474
sg21
g22
sbag7
(g8
g9
NtRp1692
(dp1693
g12
g54
sg14
S'Helvetica'
p1694
sg16
I700
sg17
g13
sg18
g13
sg19
g1475
sg21
g22
sbag7
(g8
g9
NtRp1695
(dp1696
g12
g13
sg14
S'Courier'
p1697
sg16
I700
sg17
g13
sg18
g13
sg19
g1476
sg21
g22
sbag7
(g8
g9
NtRp1698
(dp1699
g12
g13
sg14
S'Courier'
p1700
sg16
I700
sg17
g13
sg18
g13
sg19
g1477
sg21
g22
sbag7
(g8
g9
NtRp1701
(dp1702
g12
g54
sg14
S'ITC Bookman'
p1703
sg16
I200
sg17
g13
sg18
g13
sg19
g1478
sg21
g22
sbag7
(g8
g9
NtRp1704
(dp1705
g12
g13
sg14
S'Courier'
p1706
sg16
I500
sg17
g13
sg18
g13
sg19
g1479
sg21
g22
sbag7
(g8
g9
NtRp1707
(dp1708
g12
g54
sg14
S'Helvetica'
p1709
sg16
I700
sg17
g192
sg18
g13
sg19
g1480
sg21
g22
sbag7
(g8
g9
NtRp1710
(dp1711
g12
g13
sg14
S'ITC Avant Garde Gothic'
p1712
sg16
I400
sg17
g13
sg18
g13
sg19
g1481
sg21
g22
sbag7
(g8
g9
NtRp1713
(dp1714
g12
g13
sg14
S'Computer Modern'
p1715
sg16
I500
sg17
g13
sg18
g13
sg19
g1482
sg21
g22
sbag7
(g8
g9
NtRp1716
(dp1717
g12
g13
sg14
S'Helvetica'
p1718
sg16
I500
sg17
g13
sg18
g13
sg19
g1483
sg21
g22
sbag7
(g8
g9
NtRp1719
(dp1720
g12
g54
sg14
S'Palatino'
p1721
sg16
I500
sg17
g13
sg18
g13
sg19
g1484
sg21
g22
sbag7
(g8
g9
NtRp1722
(dp1723
g12
g54
sg14
S'ITC Avant Garde Gothic'
p1724
sg16
I400
sg17
g13
sg18
g13
sg19
g1485
sg21
g22
sbag7
(g8
g9
NtRp1725
(dp1726
g12
g13
sg14
S'Palatino'
p1727
sg16
I700
sg17
g13
sg18
g13
sg19
g1486
sg21
g22
sbag7
(g8
g9
NtRp1728
(dp1729
g12
g54
sg14
S'Utopia'
p1730
sg16
I700
sg17
g13
sg18
g13
sg19
g1487
sg21
g22
sbag7
(g8
g9
NtRp1731
(dp1732
g12
g13
sg14
S'Symbol'
p1733
sg16
I500
sg17
g13
sg18
g13
sg19
g1488
sg21
g22
sbag7
(g8
g9
NtRp1734
(dp1735
g12
g13
sg14
S'Times'
p1736
sg16
I700
sg17
g13
sg18
g13
sg19
g1489
sg21
g22
sbag7
(g8
g9
NtRp1737
(dp1738
g12
g13
sg14
S'Computer Modern'
p1739
sg16
I500
sg17
g13
sg18
g13
sg19
g1490
sg21
g22
sbag7
(g8
g9
NtRp1740
(dp1741
g12
g13
sg14
S'Palatino'
p1742
sg16
I500
sg17
g13
sg18
g13
sg19
g1491
sg21
g22
sbag7
(g8
g9
NtRp1743
(dp1744
g12
g13
sg14
S'Times'
p1745
sg16
I500
sg17
g13
sg18
g13
sg19
g1492
sg21
g22
sbag7
(g8
g9
NtRp1746
(dp1747
g12
g13
sg14
S'Helvetica'
p1748
sg16
I500
sg17
g13
sg18
g13
sg19
g1493
sg21
g22
sbag7
(g8
g9
NtRp1749
(dp1750
g12
g54
sg14
S'New Century Schoolbook'
p1751
sg16
I500
sg17
g13
sg18
g13
sg19
g1494
sg21
g22
sbag7
(g8
g9
NtRp1752
(dp1753
g12
g13
sg14
S'Symbol'
p1754
sg16
I500
sg17
g13
sg18
g13
sg19
g1495
sg21
g22
sbag7
(g8
g9
NtRp1755
(dp1756
g12
g13
sg14
S'Utopia'
p1757
sg16
I400
sg17
g13
sg18
g13
sg19
g1496
sg21
g22
sbag7
(g8
g9
NtRp1758
(dp1759
g12
g13
sg14
S'Helvetica'
p1760
sg16
I700
sg17
g13
sg18
g13
sg19
g1497
sg21
g22
sbag7
(g8
g9
NtRp1761
(dp1762
g12
g13
sg14
S'ITC Bookman'
p1763
sg16
I200
sg17
g13
sg18
g13
sg19
g1498
sg21
g22
sbag7
(g8
g9
NtRp1764
(dp1765
g12
g54
sg14
S'Times'
p1766
sg16
I500
sg17
g13
sg18
g13
sg19
g1499
sg21
g22
sbag7
(g8
g9
NtRp1767
(dp1768
g12
g54
sg14
S'Nimbus Roman No9 L'
p1769
sg16
I700
sg17
g13
sg18
g13
sg19
g1500
sg21
g22
sbag7
(g8
g9
NtRp1770
(dp1771
g12
g54
sg14
S'Nimbus Sans L'
p1772
sg16
I700
sg17
g13
sg18
g13
sg19
g1501
sg21
g22
sbag7
(g8
g9
NtRp1773
(dp1774
g12
g13
sg14
S'Nimbus Roman No9 L'
p1775
sg16
I700
sg17
g13
sg18
g13
sg19
g1502
sg21
g22
sbag7
(g8
g9
NtRp1776
(dp1777
g12
g54
sg14
S'LMMonoSlant10'
p1778
sg16
I400
sg17
g13
sg18
g13
sg19
g1503
sg21
g22
sbag7
(g8
g9
NtRp1779
(dp1780
g12
g13
sg14
S'LMMono10'
p1781
sg16
I400
sg17
g13
sg18
g13
sg19
g1504
sg21
g22
sbag7
(g8
g9
NtRp1782
(dp1783
g12
g13
sg14
S'LMSans10'
p1784
sg16
I700
sg17
g13
sg18
g13
sg19
g1505
sg21
g22
sbag7
(g8
g9
NtRp1785
(dp1786
g12
g13
sg14
S'Standard Symbols L'
p1787
sg16
I400
sg17
g13
sg18
g13
sg19
g1506
sg21
g22
sbag7
(g8
g9
NtRp1788
(dp1789
g12
g13
sg14
S'Dingbats'
p1790
sg16
I400
sg17
g13
sg18
g13
sg19
g1507
sg21
g22
sbag7
(g8
g9
NtRp1791
(dp1792
g12
g13
sg14
S'URW Palladio L'
p1793
sg16
I700
sg17
g13
sg18
g13
sg19
g1508
sg21
g22
sbag7
(g8
g9
NtRp1794
(dp1795
g12
g54
sg14
S'LMMonoPropLt10'
p1796
sg16
I700
sg17
g13
sg18
g13
sg19
g1509
sg21
g22
sbag7
(g8
g9
NtRp1797
(dp1798
g12
g54
sg14
S'LMSansQuot8'
p1799
sg16
I400
sg17
g13
sg18
g13
sg19
g1510
sg21
g22
sbag7
(g8
g9
NtRp1800
(dp1801
g12
g13
sg14
S'URW Bookman L'
p1802
sg16
I400
sg17
g13
sg18
g13
sg19
g1511
sg21
g22
sbag7
(g8
g9
NtRp1803
(dp1804
g12
g13
sg14
S'Nimbus Mono L'
p1805
sg16
I400
sg17
g13
sg18
g13
sg19
g1512
sg21
g22
sbag7
(g8
g9
NtRp1806
(dp1807
g12
g13
sg14
S'LMSans10'
p1808
sg16
I400
sg17
g13
sg18
g13
sg19
g1513
sg21
g22
sbag7
(g8
g9
NtRp1809
(dp1810
g12
g13
sg14
S'Courier 10 Pitch'
p1811
sg16
I700
sg17
g13
sg18
g13
sg19
g1514
sg21
g22
sbag7
(g8
g9
NtRp1812
(dp1813
g12
g54
sg14
S'Nimbus Sans L'
p1814
sg16
I400
sg17
g192
sg18
g13
sg19
g1515
sg21
g22
sbag7
(g8
g9
NtRp1815
(dp1816
g12
g54
sg14
S'URW Gothic L'
p1817
sg16
I400
sg17
g13
sg18
g13
sg19
g1516
sg21
g22
sbag7
(g8
g9
NtRp1818
(dp1819
g12
g13
sg14
S'Nimbus Sans L'
p1820
sg16
I700
sg17
g192
sg18
g13
sg19
g1517
sg21
g22
sbag7
(g8
g9
NtRp1821
(dp1822
g12
g54
sg14
S'URW Chancery L'
p1823
sg16
I500
sg17
g13
sg18
g13
sg19
g1518
sg21
g22
sbag7
(g8
g9
NtRp1824
(dp1825
g12
g13
sg14
S'LMMonoCaps10'
p1826
sg16
I400
sg17
g13
sg18
g13
sg19
g1519
sg21
g22
sbag7
(g8
g9
NtRp1827
(dp1828
g12
g54
sg14
S'Nimbus Mono L'
p1829
sg16
I700
sg17
g13
sg18
g13
sg19
g1520
sg21
g22
sbag7
(g8
g9
NtRp1830
(dp1831
g12
g54
sg14
S'LMRoman10'
p1832
sg16
I700
sg17
g13
sg18
g13
sg19
g1521
sg21
g22
sbag7
(g8
g9
NtRp1833
(dp1834
g12
g13
sg14
S'Nimbus Sans L'
p1835
sg16
I400
sg17
g192
sg18
g13
sg19
g1522
sg21
g22
sbag7
(g8
g9
NtRp1836
(dp1837
g12
g54
sg14
S'LMRomanCaps10'
p1838
sg16
I400
sg17
g13
sg18
g13
sg19
g1523
sg21
g22
sbag7
(g8
g9
NtRp1839
(dp1840
g12
g54
sg14
S'Bitstream Charter'
p1841
sg16
I700
sg17
g13
sg18
g13
sg19
g1525
sg21
g22
sbag7
(g8
g9
NtRp1842
(dp1843
g12
g13
sg14
S'LMMonoLt10'
p1844
sg16
I700
sg17
g13
sg18
g13
sg19
g1526
sg21
g22
sbag7
(g8
g9
NtRp1845
(dp1846
g12
g13
sg14
S'LMRomanDunh10'
p1847
sg16
I400
sg17
g13
sg18
g13
sg19
g1527
sg21
g22
sbag7
(g8
g9
NtRp1848
(dp1849
g12
g54
sg14
S'Bitstream Charter'
p1850
sg16
I400
sg17
g13
sg18
g13
sg19
g1528
sg21
g22
sbag7
(g8
g9
NtRp1851
(dp1852
g12
g13
sg14
S'LMRoman10'
p1853
sg16
I700
sg17
g13
sg18
g13
sg19
g1529
sg21
g22
sbag7
(g8
g9
NtRp1854
(dp1855
g12
g54
sg14
S'Nimbus Sans L'
p1856
sg16
I700
sg17
g192
sg18
g13
sg19
g1530
sg21
g22
sbag7
(g8
g9
NtRp1857
(dp1858
g12
g13
sg14
S'Nimbus Sans L'
p1859
sg16
I400
sg17
g13
sg18
g13
sg19
g1531
sg21
g22
sbag7
(g8
g9
NtRp1860
(dp1861
g12
g54
sg14
S'URW Palladio L'
p1862
sg16
I700
sg17
g13
sg18
g13
sg19
g1532
sg21
g22
sbag7
(g8
g9
NtRp1863
(dp1864
g12
g54
sg14
S'URW Bookman L'
p1865
sg16
I700
sg17
g13
sg18
g13
sg19
g1533
sg21
g22
sbag7
(g8
g9
NtRp1866
(dp1867
g12
g13
sg14
S'LMMonoProp10'
p1868
sg16
I400
sg17
g13
sg18
g13
sg19
g1534
sg21
g22
sbag7
(g8
g9
NtRp1869
(dp1870
g12
g13
sg14
S'LMMonoPropLt10'
p1871
sg16
I700
sg17
g13
sg18
g13
sg19
g1535
sg21
g22
sbag7
(g8
g9
NtRp1872
(dp1873
g12
g54
sg14
S'LMRomanDunh10'
p1874
sg16
I400
sg17
g13
sg18
g13
sg19
g1536
sg21
g22
sbag7
(g8
g9
NtRp1875
(dp1876
g12
g13
sg14
S'URW Gothic L'
p1877
sg16
I400
sg17
g13
sg18
g13
sg19
g1537
sg21
g22
sbag7
(g8
g9
NtRp1878
(dp1879
g12
g54
sg14
S'Courier 10 Pitch'
p1880
sg16
I400
sg17
g13
sg18
g13
sg19
g1538
sg21
g22
sbag7
(g8
g9
NtRp1881
(dp1882
g12
g54
sg14
S'LMSansDemiCond10'
p1883
sg16
I600
sg17
g192
sg18
g13
sg19
g1539
sg21
g22
sbag7
(g8
g9
NtRp1884
(dp1885
g12
g13
sg14
S'Bitstream Charter'
p1886
sg16
I400
sg17
g13
sg18
g13
sg19
g1540
sg21
g22
sbag7
(g8
g9
NtRp1887
(dp1888
g12
g13
sg14
S'Nimbus Mono L'
p1889
sg16
I700
sg17
g13
sg18
g13
sg19
g1541
sg21
g22
sbag7
(g8
g9
NtRp1890
(dp1891
g12
g13
sg14
S'LMSansQuot8'
p1892
sg16
I400
sg17
g13
sg18
g13
sg19
g1542
sg21
g22
sbag7
(g8
g9
NtRp1893
(dp1894
g12
g54
sg14
S'URW Palladio L'
p1895
sg16
I400
sg17
g13
sg18
g13
sg19
g1543
sg21
g22
sbag7
(g8
g9
NtRp1896
(dp1897
g12
g54
sg14
S'LMMono10'
p1898
sg16
I400
sg17
g13
sg18
g13
sg19
g1545
sg21
g22
sbag7
(g8
g9
NtRp1899
(dp1900
g12
g54
sg14
S'LMRomanSlant10'
p1901
sg16
I400
sg17
g13
sg18
g13
sg19
g1546
sg21
g22
sbag7
(g8
g9
NtRp1902
(dp1903
g12
g54
sg14
S'URW Gothic L'
p1904
sg16
I600
sg17
g13
sg18
g13
sg19
g1547
sg21
g22
sbag7
(g8
g9
NtRp1905
(dp1906
g12
g54
sg14
S'Century Schoolbook L'
p1907
sg16
I400
sg17
g13
sg18
g13
sg19
g1548
sg21
g22
sbag7
(g8
g9
NtRp1908
(dp1909
g12
g54
sg14
S'LMSans10'
p1910
sg16
I400
sg17
g13
sg18
g13
sg19
g1549
sg21
g22
sbag7
(g8
g9
NtRp1911
(dp1912
g12
g54
sg14
S'Nimbus Sans L'
p1913
sg16
I400
sg17
g13
sg18
g13
sg19
g1550
sg21
g22
sbag7
(g8
g9
NtRp1914
(dp1915
g12
g13
sg14
S'LMMonoPropLt10'
p1916
sg16
I200
sg17
g13
sg18
g13
sg19
g1551
sg21
g22
sbag7
(g8
g9
NtRp1917
(dp1918
g12
g54
sg14
S'LMMonoLt10'
p1919
sg16
I700
sg17
g13
sg18
g13
sg19
g1552
sg21
g22
sbag7
(g8
g9
NtRp1920
(dp1921
g12
g54
sg14
S'Courier 10 Pitch'
p1922
sg16
I700
sg17
g13
sg18
g13
sg19
g1553
sg21
g22
sbag7
(g8
g9
NtRp1923
(dp1924
g12
g54
sg14
S'LMRomanDemi10'
p1925
sg16
I600
sg17
g13
sg18
g13
sg19
g1554
sg21
g22
sbag7
(g8
g9
NtRp1926
(dp1927
g12
g54
sg14
S'Century Schoolbook L'
p1928
sg16
I700
sg17
g13
sg18
g13
sg19
g1555
sg21
g22
sbag7
(g8
g9
NtRp1929
(dp1930
g12
g54
sg14
S'LMRoman10'
p1931
sg16
I400
sg17
g13
sg18
g13
sg19
g1556
sg21
g22
sbag7
(g8
g9
NtRp1932
(dp1933
g12
g13
sg14
S'Nimbus Sans L'
p1934
sg16
I700
sg17
g13
sg18
g13
sg19
g1557
sg21
g22
sbag7
(g8
g9
NtRp1935
(dp1936
g12
g54
sg14
S'LMSansQuot8'
p1937
sg16
I700
sg17
g13
sg18
g13
sg19
g1558
sg21
g22
sbag7
(g8
g9
NtRp1938
(dp1939
g12
g13
sg14
S'URW Palladio L'
p1940
sg16
I500
sg17
g13
sg18
g13
sg19
g1559
sg21
g22
sbag7
(g8
g9
NtRp1941
(dp1942
g12
g13
sg14
S'LMRoman10'
p1943
sg16
I400
sg17
g13
sg18
g13
sg19
g1560
sg21
g22
sbag7
(g8
g9
NtRp1944
(dp1945
g12
g13
sg14
S'URW Gothic L'
p1946
sg16
I600
sg17
g13
sg18
g13
sg19
g1561
sg21
g22
sbag7
(g8
g9
NtRp1947
(dp1948
g12
g13
sg14
S'LMSansQuot8'
p1949
sg16
I700
sg17
g13
sg18
g13
sg19
g1562
sg21
g22
sbag7
(g8
g9
NtRp1950
(dp1951
g12
g54
sg14
S'LMMonoProp10'
p1952
sg16
I400
sg17
g13
sg18
g13
sg19
g1563
sg21
g22
sbag7
(g8
g9
NtRp1953
(dp1954
g12
g13
sg14
S'LMSansDemiCond10'
p1955
sg16
I600
sg17
g192
sg18
g13
sg19
g1564
sg21
g22
sbag7
(g8
g9
NtRp1956
(dp1957
g12
g54
sg14
S'URW Bookman L'
p1958
sg16
I400
sg17
g13
sg18
g13
sg19
g1565
sg21
g22
sbag7
(g8
g9
NtRp1959
(dp1960
g12
g13
sg14
S'LMMonoLt10'
p1961
sg16
I200
sg17
g13
sg18
g13
sg19
g1566
sg21
g22
sbag7
(g8
g9
NtRp1962
(dp1963
g12
g13
sg14
S'Century Schoolbook L'
p1964
sg16
I700
sg17
g13
sg18
g13
sg19
g1567
sg21
g22
sbag7
(g8
g9
NtRp1965
(dp1966
g12
g54
sg14
S'LMRomanSlant10'
p1967
sg16
I700
sg17
g13
sg18
g13
sg19
g1568
sg21
g22
sbag7
(g8
g9
NtRp1968
(dp1969
g12
g54
sg14
S'Nimbus Mono L'
p1970
sg16
I400
sg17
g13
sg18
g13
sg19
g1569
sg21
g22
sbag7
(g8
g9
NtRp1971
(dp1972
g12
g54
sg14
S'LMMonoLtCond10'
p1973
sg16
I200
sg17
g192
sg18
g13
sg19
g1570
sg21
g22
sbag7
(g8
g9
NtRp1974
(dp1975
g12
g13
sg14
S'LMMonoLtCond10'
p1976
sg16
I200
sg17
g192
sg18
g13
sg19
g1571
sg21
g22
sbag7
(g8
g9
NtRp1977
(dp1978
g12
g54
sg14
S'Nimbus Roman No9 L'
p1979
sg16
I400
sg17
g13
sg18
g13
sg19
g1572
sg21
g22
sbag7
(g8
g9
NtRp1980
(dp1981
g12
g13
sg14
S'LMRomanCaps10'
p1982
sg16
I400
sg17
g13
sg18
g13
sg19
g1573
sg21
g22
sbag7
(g8
g9
NtRp1983
(dp1984
g12
g54
sg14
S'LMMonoLt10'
p1985
sg16
I200
sg17
g13
sg18
g13
sg19
g1574
sg21
g22
sbag7
(g8
g9
NtRp1986
(dp1987
g12
g54
sg14
S'LMSans10'
p1988
sg16
I700
sg17
g13
sg18
g13
sg19
g1575
sg21
g22
sbag7
(g8
g9
NtRp1989
(dp1990
g12
g13
sg14
S'Bitstream Charter'
p1991
sg16
I700
sg17
g13
sg18
g13
sg19
g1576
sg21
g22
sbag7
(g8
g9
NtRp1992
(dp1993
g12
g54
sg14
S'LMMonoCaps10'
p1994
sg16
I400
sg17
g13
sg18
g13
sg19
g1577
sg21
g22
sbag7
(g8
g9
NtRp1995
(dp1996
g12
g13
sg14
S'Nimbus Roman No9 L'
p1997
sg16
I400
sg17
g13
sg18
g13
sg19
g1578
sg21
g22
sbag7
(g8
g9
NtRp1998
(dp1999
g12
g13
sg14
S'Century Schoolbook L'
p2000
sg16
I500
sg17
g13
sg18
g13
sg19
g1579
sg21
g22
sbag7
(g8
g9
NtRp2001
(dp2002
g12
g13
sg14
S'LMRomanUnsl10'
p2003
sg16
I400
sg17
g13
sg18
g13
sg19
g1580
sg21
g22
sbag7
(g8
g9
NtRp2004
(dp2005
g12
g13
sg14
S'LMRomanDemi10'
p2006
sg16
I600
sg17
g13
sg18
g13
sg19
g1581
sg21
g22
sbag7
(g8
g9
NtRp2007
(dp2008
g12
g54
sg14
S'LMMonoPropLt10'
p2009
sg16
I200
sg17
g13
sg18
g13
sg19
g1582
sg21
g22
sbag7
(g8
g9
NtRp2010
(dp2011
g12
g13
sg14
S'URW Bookman L'
p2012
sg16
I700
sg17
g13
sg18
g13
sg19
g1583
sg21
g22
sbag7
(g8
g9
NtRp2013
(dp2014
g12
g13
sg14
S'Courier 10 Pitch'
p2015
sg16
I400
sg17
g13
sg18
g13
sg19
g1584
sg21
g22
sbasb.